Archive member included because of file (symbol)

C:\Users\Administrator\AppData\Local\Temp\VMBuilds\LoRa_Roll_Film\stm32_genericSTM32F103R\Release/core.a(exc.S.o)
                              (__exc_hardfault)
C:\Users\Administrator\AppData\Local\Temp\VMBuilds\LoRa_Roll_Film\stm32_genericSTM32F103R\Release/core.a(isrs.S.o)
                              (__stm32reservedexception7)
C:\Users\Administrator\AppData\Local\Temp\VMBuilds\LoRa_Roll_Film\stm32_genericSTM32F103R\Release/core.a(vector_table.S.o)
                              (__stm32_vector_table)
C:\Users\Administrator\AppData\Local\Temp\VMBuilds\LoRa_Roll_Film\stm32_genericSTM32F103R\Release/core.a(adc.c.o)
                              C:\Users\Administrator\AppData\Local\Temp\VMBCore\arduino16x\a25b0c93d50495b56da79188cbb05a7a\variant\boards.cpp.o (adc_set_sample_rate)
C:\Users\Administrator\AppData\Local\Temp\VMBuilds\LoRa_Roll_Film\stm32_genericSTM32F103R\Release/core.a(adc_f1.c.o)
                              C:\Users\Administrator\AppData\Local\Temp\VMBCore\arduino16x\a25b0c93d50495b56da79188cbb05a7a\variant\boards.cpp.o (adc_set_prescaler)
C:\Users\Administrator\AppData\Local\Temp\VMBuilds\LoRa_Roll_Film\stm32_genericSTM32F103R\Release/core.a(bkp_f1.c.o)
                              LoRa_Roll_Film.cpp.o (bkp_init)
C:\Users\Administrator\AppData\Local\Temp\VMBuilds\LoRa_Roll_Film\stm32_genericSTM32F103R\Release/core.a(flash.c.o)
                              C:\Users\Administrator\AppData\Local\Temp\VMBCore\arduino16x\a25b0c93d50495b56da79188cbb05a7a\variant\boards.cpp.o (flash_set_latency)
C:\Users\Administrator\AppData\Local\Temp\VMBuilds\LoRa_Roll_Film\stm32_genericSTM32F103R\Release/core.a(gpio_f1.c.o)
                              C:\Users\Administrator\AppData\Local\Temp\VMBCore\arduino16x\a25b0c93d50495b56da79188cbb05a7a\variant\boards_setup.cpp.o (gpio_init_all)
C:\Users\Administrator\AppData\Local\Temp\VMBuilds\LoRa_Roll_Film\stm32_genericSTM32F103R\Release/core.a(iwdg.c.o)
                              LoRa_Roll_Film.cpp.o (iwdg_init)
C:\Users\Administrator\AppData\Local\Temp\VMBuilds\LoRa_Roll_Film\stm32_genericSTM32F103R\Release/core.a(nvic.c.o)
                              C:\Users\Administrator\AppData\Local\Temp\VMBCore\arduino16x\a25b0c93d50495b56da79188cbb05a7a\variant\boards.cpp.o (nvic_init)
C:\Users\Administrator\AppData\Local\Temp\VMBuilds\LoRa_Roll_Film\stm32_genericSTM32F103R\Release/core.a(rcc.c.o)
                              C:\Users\Administrator\AppData\Local\Temp\VMBCore\arduino16x\a25b0c93d50495b56da79188cbb05a7a\variant\boards.cpp.o (rcc_switch_sysclk)
C:\Users\Administrator\AppData\Local\Temp\VMBuilds\LoRa_Roll_Film\stm32_genericSTM32F103R\Release/core.a(rcc_f1.c.o)
                              C:\Users\Administrator\AppData\Local\Temp\VMBCore\arduino16x\a25b0c93d50495b56da79188cbb05a7a\variant\boards.cpp.o (rcc_configure_pll)
C:\Users\Administrator\AppData\Local\Temp\VMBuilds\LoRa_Roll_Film\stm32_genericSTM32F103R\Release/core.a(systick.c.o)
                              C:\Users\Administrator\AppData\Local\Temp\VMBCore\arduino16x\a25b0c93d50495b56da79188cbb05a7a\variant\boards.cpp.o (systick_init)
C:\Users\Administrator\AppData\Local\Temp\VMBuilds\LoRa_Roll_Film\stm32_genericSTM32F103R\Release/core.a(timer.c.o)
                              C:\Users\Administrator\AppData\Local\Temp\VMBCore\arduino16x\a25b0c93d50495b56da79188cbb05a7a\variant\boards.cpp.o (timer_foreach)
C:\Users\Administrator\AppData\Local\Temp\VMBuilds\LoRa_Roll_Film\stm32_genericSTM32F103R\Release/core.a(usart_f1.c.o)
                              C:\Users\Administrator\AppData\Local\Temp\VMBCore\arduino16x\a25b0c93d50495b56da79188cbb05a7a\variant\board.cpp.o (UART5)
C:\Users\Administrator\AppData\Local\Temp\VMBuilds\LoRa_Roll_Film\stm32_genericSTM32F103R\Release/core.a(usart_private.c.o)
                              C:\Users\Administrator\AppData\Local\Temp\VMBuilds\LoRa_Roll_Film\stm32_genericSTM32F103R\Release/core.a(usart_f1.c.o) (_usart_clock_freq)
C:\Users\Administrator\AppData\Local\Temp\VMBuilds\LoRa_Roll_Film\stm32_genericSTM32F103R\Release/core.a(util.c.o)
                              C:\Users\Administrator\AppData\Local\Temp\VMBuilds\LoRa_Roll_Film\stm32_genericSTM32F103R\Release/core.a(exc.S.o) (__error)
C:\Users\Administrator\AppData\Local\Temp\VMBuilds\LoRa_Roll_Film\stm32_genericSTM32F103R\Release/core.a(ext_interrupts.cpp.o)
                              LoRa_Roll_Film.cpp.o (attachInterrupt(unsigned char, void (*)(), ExtIntTriggerMode))
C:\Users\Administrator\AppData\Local\Temp\VMBuilds\LoRa_Roll_Film\stm32_genericSTM32F103R\Release/core.a(HardwareSerial.cpp.o)
                              Command_Analysis.cpp.o (HardwareSerial::read())
C:\Users\Administrator\AppData\Local\Temp\VMBuilds\LoRa_Roll_Film\stm32_genericSTM32F103R\Release/core.a(HardwareTimer.cpp.o)
                              fun_periph.cpp.o (HardwareTimer::pause())
C:\Users\Administrator\AppData\Local\Temp\VMBuilds\LoRa_Roll_Film\stm32_genericSTM32F103R\Release/core.a(main.cpp.o)
                              (main)
C:\Users\Administrator\AppData\Local\Temp\VMBuilds\LoRa_Roll_Film\stm32_genericSTM32F103R\Release/core.a(Print.cpp.o)
                              C:\Users\Administrator\AppData\Local\Temp\VMBuilds\LoRa_Roll_Film\stm32_genericSTM32F103R\Release/core.a(HardwareSerial.cpp.o) (Print::write(char const*))
C:\Users\Administrator\AppData\Local\Temp\VMBuilds\LoRa_Roll_Film\stm32_genericSTM32F103R\Release/core.a(wirish_analog.cpp.o)
                              Motor.cpp.o (analogRead(unsigned char))
C:\Users\Administrator\AppData\Local\Temp\VMBuilds\LoRa_Roll_Film\stm32_genericSTM32F103R\Release/core.a(wirish_digital.cpp.o)
                              LoRa_Roll_Film.cpp.o (digitalRead(unsigned char))
C:\Users\Administrator\AppData\Local\Temp\VMBuilds\LoRa_Roll_Film\stm32_genericSTM32F103R\Release/core.a(wirish_math.cpp.o)
                              receipt.cpp.o (random(long, long))
C:\Users\Administrator\AppData\Local\Temp\VMBuilds\LoRa_Roll_Film\stm32_genericSTM32F103R\Release/core.a(wirish_time.cpp.o)
                              LoRa_Roll_Film.cpp.o (delay(unsigned long))
C:\Users\Administrator\AppData\Local\Temp\VMBuilds\LoRa_Roll_Film\stm32_genericSTM32F103R\Release/core.a(wirish_digital_f1.cpp.o)
                              fun_periph.cpp.o (pinMode(unsigned char, WiringPinMode))
C:\Users\Administrator\AppData\Local\Temp\VMBuilds\LoRa_Roll_Film\stm32_genericSTM32F103R\Release/core.a(hooks.c.o)
                              C:\Users\Administrator\AppData\Local\Temp\VMBuilds\LoRa_Roll_Film\stm32_genericSTM32F103R\Release/core.a(wirish_time.cpp.o) (yield)
C:\Users\Administrator\AppData\Local\Temp\VMBuilds\LoRa_Roll_Film\stm32_genericSTM32F103R\Release/core.a(exti.c.o)
                              C:\Users\Administrator\AppData\Local\Temp\VMBuilds\LoRa_Roll_Film\stm32_genericSTM32F103R\Release/core.a(ext_interrupts.cpp.o) (exti_attach_callback)
C:\Users\Administrator\AppData\Local\Temp\VMBuilds\LoRa_Roll_Film\stm32_genericSTM32F103R\Release/core.a(exti_f1.c.o)
                              C:\Users\Administrator\AppData\Local\Temp\VMBuilds\LoRa_Roll_Film\stm32_genericSTM32F103R\Release/core.a(exti.c.o) (exti_select)
C:\Users\Administrator\AppData\Local\Temp\VMBuilds\LoRa_Roll_Film\stm32_genericSTM32F103R\Release/core.a(gpio.c.o)
                              C:\Users\Administrator\AppData\Local\Temp\VMBuilds\LoRa_Roll_Film\stm32_genericSTM32F103R\Release/core.a(gpio_f1.c.o) (gpio_init)
C:\Users\Administrator\AppData\Local\Temp\VMBuilds\LoRa_Roll_Film\stm32_genericSTM32F103R\Release/core.a(usart.c.o)
                              C:\Users\Administrator\AppData\Local\Temp\VMBuilds\LoRa_Roll_Film\stm32_genericSTM32F103R\Release/core.a(HardwareSerial.cpp.o) (usart_init)
C:\Users\Administrator\AppData\Local\Temp\VMBuilds\LoRa_Roll_Film\stm32_genericSTM32F103R\Release/core.a(cxxabi-compat.cpp.o)
                              C:\Users\Administrator\AppData\Local\Temp\VMBuilds\LoRa_Roll_Film\stm32_genericSTM32F103R\Release/core.a(HardwareSerial.cpp.o) (__cxa_pure_virtual)
c:/users/administrator/appdata/local/arduino15/packages/arduino/tools/arm-none-eabi-gcc/4.8.3-2014q1/bin/../lib/gcc/arm-none-eabi/4.8.3/../../../../arm-none-eabi/lib/armv7-m\libm.a(lib_a-w_pow.o)
                              BCD_CON.cpp.o (pow)
c:/users/administrator/appdata/local/arduino15/packages/arduino/tools/arm-none-eabi-gcc/4.8.3-2014q1/bin/../lib/gcc/arm-none-eabi/4.8.3/../../../../arm-none-eabi/lib/armv7-m\libm.a(lib_a-e_pow.o)
                              c:/users/administrator/appdata/local/arduino15/packages/arduino/tools/arm-none-eabi-gcc/4.8.3-2014q1/bin/../lib/gcc/arm-none-eabi/4.8.3/../../../../arm-none-eabi/lib/armv7-m\libm.a(lib_a-w_pow.o) (__ieee754_pow)
c:/users/administrator/appdata/local/arduino15/packages/arduino/tools/arm-none-eabi-gcc/4.8.3-2014q1/bin/../lib/gcc/arm-none-eabi/4.8.3/../../../../arm-none-eabi/lib/armv7-m\libm.a(lib_a-e_sqrt.o)
                              c:/users/administrator/appdata/local/arduino15/packages/arduino/tools/arm-none-eabi-gcc/4.8.3-2014q1/bin/../lib/gcc/arm-none-eabi/4.8.3/../../../../arm-none-eabi/lib/armv7-m\libm.a(lib_a-e_pow.o) (__ieee754_sqrt)
c:/users/administrator/appdata/local/arduino15/packages/arduino/tools/arm-none-eabi-gcc/4.8.3-2014q1/bin/../lib/gcc/arm-none-eabi/4.8.3/../../../../arm-none-eabi/lib/armv7-m\libm.a(lib_a-s_fabs.o)
                              c:/users/administrator/appdata/local/arduino15/packages/arduino/tools/arm-none-eabi-gcc/4.8.3-2014q1/bin/../lib/gcc/arm-none-eabi/4.8.3/../../../../arm-none-eabi/lib/armv7-m\libm.a(lib_a-e_pow.o) (fabs)
c:/users/administrator/appdata/local/arduino15/packages/arduino/tools/arm-none-eabi-gcc/4.8.3-2014q1/bin/../lib/gcc/arm-none-eabi/4.8.3/../../../../arm-none-eabi/lib/armv7-m\libm.a(lib_a-s_finite.o)
                              c:/users/administrator/appdata/local/arduino15/packages/arduino/tools/arm-none-eabi-gcc/4.8.3-2014q1/bin/../lib/gcc/arm-none-eabi/4.8.3/../../../../arm-none-eabi/lib/armv7-m\libm.a(lib_a-w_pow.o) (finite)
c:/users/administrator/appdata/local/arduino15/packages/arduino/tools/arm-none-eabi-gcc/4.8.3-2014q1/bin/../lib/gcc/arm-none-eabi/4.8.3/../../../../arm-none-eabi/lib/armv7-m\libm.a(lib_a-s_fpclassify.o)
                              c:/users/administrator/appdata/local/arduino15/packages/arduino/tools/arm-none-eabi-gcc/4.8.3-2014q1/bin/../lib/gcc/arm-none-eabi/4.8.3/../../../../arm-none-eabi/lib/armv7-m\libm.a(lib_a-w_pow.o) (__fpclassifyd)
c:/users/administrator/appdata/local/arduino15/packages/arduino/tools/arm-none-eabi-gcc/4.8.3-2014q1/bin/../lib/gcc/arm-none-eabi/4.8.3/../../../../arm-none-eabi/lib/armv7-m\libm.a(lib_a-s_lib_ver.o)
                              c:/users/administrator/appdata/local/arduino15/packages/arduino/tools/arm-none-eabi-gcc/4.8.3-2014q1/bin/../lib/gcc/arm-none-eabi/4.8.3/../../../../arm-none-eabi/lib/armv7-m\libm.a(lib_a-w_pow.o) (__fdlib_version)
c:/users/administrator/appdata/local/arduino15/packages/arduino/tools/arm-none-eabi-gcc/4.8.3-2014q1/bin/../lib/gcc/arm-none-eabi/4.8.3/../../../../arm-none-eabi/lib/armv7-m\libm.a(lib_a-s_matherr.o)
                              c:/users/administrator/appdata/local/arduino15/packages/arduino/tools/arm-none-eabi-gcc/4.8.3-2014q1/bin/../lib/gcc/arm-none-eabi/4.8.3/../../../../arm-none-eabi/lib/armv7-m\libm.a(lib_a-w_pow.o) (matherr)
c:/users/administrator/appdata/local/arduino15/packages/arduino/tools/arm-none-eabi-gcc/4.8.3-2014q1/bin/../lib/gcc/arm-none-eabi/4.8.3/../../../../arm-none-eabi/lib/armv7-m\libm.a(lib_a-s_nan.o)
                              c:/users/administrator/appdata/local/arduino15/packages/arduino/tools/arm-none-eabi-gcc/4.8.3-2014q1/bin/../lib/gcc/arm-none-eabi/4.8.3/../../../../arm-none-eabi/lib/armv7-m\libm.a(lib_a-e_pow.o) (nan)
c:/users/administrator/appdata/local/arduino15/packages/arduino/tools/arm-none-eabi-gcc/4.8.3-2014q1/bin/../lib/gcc/arm-none-eabi/4.8.3/../../../../arm-none-eabi/lib/armv7-m\libm.a(lib_a-s_rint.o)
                              c:/users/administrator/appdata/local/arduino15/packages/arduino/tools/arm-none-eabi-gcc/4.8.3-2014q1/bin/../lib/gcc/arm-none-eabi/4.8.3/../../../../arm-none-eabi/lib/armv7-m\libm.a(lib_a-w_pow.o) (rint)
c:/users/administrator/appdata/local/arduino15/packages/arduino/tools/arm-none-eabi-gcc/4.8.3-2014q1/bin/../lib/gcc/arm-none-eabi/4.8.3/../../../../arm-none-eabi/lib/armv7-m\libm.a(lib_a-s_scalbn.o)
                              c:/users/administrator/appdata/local/arduino15/packages/arduino/tools/arm-none-eabi-gcc/4.8.3-2014q1/bin/../lib/gcc/arm-none-eabi/4.8.3/../../../../arm-none-eabi/lib/armv7-m\libm.a(lib_a-e_pow.o) (scalbn)
c:/users/administrator/appdata/local/arduino15/packages/arduino/tools/arm-none-eabi-gcc/4.8.3-2014q1/bin/../lib/gcc/arm-none-eabi/4.8.3/../../../../arm-none-eabi/lib/armv7-m\libm.a(lib_a-s_copysign.o)
                              c:/users/administrator/appdata/local/arduino15/packages/arduino/tools/arm-none-eabi-gcc/4.8.3-2014q1/bin/../lib/gcc/arm-none-eabi/4.8.3/../../../../arm-none-eabi/lib/armv7-m\libm.a(lib_a-s_scalbn.o) (copysign)
c:/users/administrator/appdata/local/arduino15/packages/arduino/tools/arm-none-eabi-gcc/4.8.3-2014q1/bin/../lib/gcc/arm-none-eabi/4.8.3/armv7-m\libgcc.a(_arm_addsubdf3.o)
                              Motor.cpp.o (__aeabi_dsub)
c:/users/administrator/appdata/local/arduino15/packages/arduino/tools/arm-none-eabi-gcc/4.8.3-2014q1/bin/../lib/gcc/arm-none-eabi/4.8.3/armv7-m\libgcc.a(_arm_muldivdf3.o)
                              BCD_CON.cpp.o (__aeabi_dmul)
c:/users/administrator/appdata/local/arduino15/packages/arduino/tools/arm-none-eabi-gcc/4.8.3-2014q1/bin/../lib/gcc/arm-none-eabi/4.8.3/armv7-m\libgcc.a(_arm_cmpdf2.o)
                              c:/users/administrator/appdata/local/arduino15/packages/arduino/tools/arm-none-eabi-gcc/4.8.3-2014q1/bin/../lib/gcc/arm-none-eabi/4.8.3/../../../../arm-none-eabi/lib/armv7-m\libm.a(lib_a-w_pow.o) (__aeabi_dcmpeq)
c:/users/administrator/appdata/local/arduino15/packages/arduino/tools/arm-none-eabi-gcc/4.8.3-2014q1/bin/../lib/gcc/arm-none-eabi/4.8.3/armv7-m\libgcc.a(_arm_fixdfsi.o)
                              BCD_CON.cpp.o (__aeabi_d2iz)
c:/users/administrator/appdata/local/arduino15/packages/arduino/tools/arm-none-eabi-gcc/4.8.3-2014q1/bin/../lib/gcc/arm-none-eabi/4.8.3/armv7-m\libgcc.a(_arm_fixunsdfsi.o)
                              BCD_CON.cpp.o (__aeabi_d2uiz)
c:/users/administrator/appdata/local/arduino15/packages/arduino/tools/arm-none-eabi-gcc/4.8.3-2014q1/bin/../lib/gcc/arm-none-eabi/4.8.3/armv7-m\libgcc.a(_arm_truncdfsf2.o)
                              BCD_CON.cpp.o (__aeabi_d2f)
c:/users/administrator/appdata/local/arduino15/packages/arduino/tools/arm-none-eabi-gcc/4.8.3-2014q1/bin/../lib/gcc/arm-none-eabi/4.8.3/armv7-m\libgcc.a(_arm_addsubsf3.o)
                              Motor.cpp.o (__aeabi_fsub)
c:/users/administrator/appdata/local/arduino15/packages/arduino/tools/arm-none-eabi-gcc/4.8.3-2014q1/bin/../lib/gcc/arm-none-eabi/4.8.3/armv7-m\libgcc.a(_arm_muldivsf3.o)
                              Motor.cpp.o (__aeabi_fmul)
c:/users/administrator/appdata/local/arduino15/packages/arduino/tools/arm-none-eabi-gcc/4.8.3-2014q1/bin/../lib/gcc/arm-none-eabi/4.8.3/armv7-m\libgcc.a(_arm_cmpsf2.o)
                              Motor.cpp.o (__aeabi_fcmpgt)
c:/users/administrator/appdata/local/arduino15/packages/arduino/tools/arm-none-eabi-gcc/4.8.3-2014q1/bin/../lib/gcc/arm-none-eabi/4.8.3/armv7-m\libgcc.a(_arm_fixunssfsi.o)
                              Motor.cpp.o (__aeabi_f2uiz)
c:/users/administrator/appdata/local/arduino15/packages/arduino/tools/arm-none-eabi-gcc/4.8.3-2014q1/bin/../lib/gcc/arm-none-eabi/4.8.3/armv7-m\libgcc.a(_aeabi_uldivmod.o)
                              C:\Users\Administrator\AppData\Local\Temp\VMBuilds\LoRa_Roll_Film\stm32_genericSTM32F103R\Release/core.a(Print.cpp.o) (__aeabi_uldivmod)
c:/users/administrator/appdata/local/arduino15/packages/arduino/tools/arm-none-eabi-gcc/4.8.3-2014q1/bin/../lib/gcc/arm-none-eabi/4.8.3/armv7-m\libgcc.a(_fixdfdi.o)
                              C:\Users\Administrator\AppData\Local\Temp\VMBuilds\LoRa_Roll_Film\stm32_genericSTM32F103R\Release/core.a(Print.cpp.o) (__aeabi_d2lz)
c:/users/administrator/appdata/local/arduino15/packages/arduino/tools/arm-none-eabi-gcc/4.8.3-2014q1/bin/../lib/gcc/arm-none-eabi/4.8.3/armv7-m\libgcc.a(_fixunsdfdi.o)
                              c:/users/administrator/appdata/local/arduino15/packages/arduino/tools/arm-none-eabi-gcc/4.8.3-2014q1/bin/../lib/gcc/arm-none-eabi/4.8.3/armv7-m\libgcc.a(_fixdfdi.o) (__aeabi_d2ulz)
c:/users/administrator/appdata/local/arduino15/packages/arduino/tools/arm-none-eabi-gcc/4.8.3-2014q1/bin/../lib/gcc/arm-none-eabi/4.8.3/armv7-m\libgcc.a(bpabi.o)
                              c:/users/administrator/appdata/local/arduino15/packages/arduino/tools/arm-none-eabi-gcc/4.8.3-2014q1/bin/../lib/gcc/arm-none-eabi/4.8.3/armv7-m\libgcc.a(_aeabi_uldivmod.o) (__gnu_uldivmod_helper)
c:/users/administrator/appdata/local/arduino15/packages/arduino/tools/arm-none-eabi-gcc/4.8.3-2014q1/bin/../lib/gcc/arm-none-eabi/4.8.3/armv7-m\libgcc.a(_dvmd_tls.o)
                              c:/users/administrator/appdata/local/arduino15/packages/arduino/tools/arm-none-eabi-gcc/4.8.3-2014q1/bin/../lib/gcc/arm-none-eabi/4.8.3/armv7-m\libgcc.a(_aeabi_uldivmod.o) (__aeabi_ldiv0)
c:/users/administrator/appdata/local/arduino15/packages/arduino/tools/arm-none-eabi-gcc/4.8.3-2014q1/bin/../lib/gcc/arm-none-eabi/4.8.3/armv7-m\libgcc.a(_divdi3.o)
                              c:/users/administrator/appdata/local/arduino15/packages/arduino/tools/arm-none-eabi-gcc/4.8.3-2014q1/bin/../lib/gcc/arm-none-eabi/4.8.3/armv7-m\libgcc.a(bpabi.o) (__divdi3)
c:/users/administrator/appdata/local/arduino15/packages/arduino/tools/arm-none-eabi-gcc/4.8.3-2014q1/bin/../lib/gcc/arm-none-eabi/4.8.3/armv7-m\libgcc.a(_udivdi3.o)
                              c:/users/administrator/appdata/local/arduino15/packages/arduino/tools/arm-none-eabi-gcc/4.8.3-2014q1/bin/../lib/gcc/arm-none-eabi/4.8.3/armv7-m\libgcc.a(bpabi.o) (__udivdi3)
c:/users/administrator/appdata/local/arduino15/packages/arduino/tools/arm-none-eabi-gcc/4.8.3-2014q1/bin/../lib/gcc/arm-none-eabi/4.8.3/../../../../arm-none-eabi/lib/armv7-m\libc.a(lib_a-errno.o)
                              C:\Users\Administrator\AppData\Local\Temp\VMBCore\arduino16x\a25b0c93d50495b56da79188cbb05a7a\variant\syscalls.c.o (__errno)
c:/users/administrator/appdata/local/arduino15/packages/arduino/tools/arm-none-eabi-gcc/4.8.3-2014q1/bin/../lib/gcc/arm-none-eabi/4.8.3/../../../../arm-none-eabi/lib/armv7-m\libc.a(lib_a-exit.o)
                              c:/users/administrator/appdata/local/arduino15/packages/arduino/tools/arm-none-eabi-gcc/4.8.3-2014q1/bin/../lib/gcc/arm-none-eabi/4.8.3/../../../../arm-none-eabi/lib/armv7-m/crt0.o (exit)
c:/users/administrator/appdata/local/arduino15/packages/arduino/tools/arm-none-eabi-gcc/4.8.3-2014q1/bin/../lib/gcc/arm-none-eabi/4.8.3/../../../../arm-none-eabi/lib/armv7-m\libc.a(lib_a-gmtime.o)
                              RTClock\RTClock.cpp.o (gmtime)
c:/users/administrator/appdata/local/arduino15/packages/arduino/tools/arm-none-eabi-gcc/4.8.3-2014q1/bin/../lib/gcc/arm-none-eabi/4.8.3/../../../../arm-none-eabi/lib/armv7-m\libc.a(lib_a-gmtime_r.o)
                              c:/users/administrator/appdata/local/arduino15/packages/arduino/tools/arm-none-eabi-gcc/4.8.3-2014q1/bin/../lib/gcc/arm-none-eabi/4.8.3/../../../../arm-none-eabi/lib/armv7-m\libc.a(lib_a-gmtime.o) (gmtime_r)
c:/users/administrator/appdata/local/arduino15/packages/arduino/tools/arm-none-eabi-gcc/4.8.3-2014q1/bin/../lib/gcc/arm-none-eabi/4.8.3/../../../../arm-none-eabi/lib/armv7-m\libc.a(lib_a-impure.o)
                              c:/users/administrator/appdata/local/arduino15/packages/arduino/tools/arm-none-eabi-gcc/4.8.3-2014q1/bin/../lib/gcc/arm-none-eabi/4.8.3/../../../../arm-none-eabi/lib/armv7-m\libc.a(lib_a-exit.o) (_global_impure_ptr)
c:/users/administrator/appdata/local/arduino15/packages/arduino/tools/arm-none-eabi-gcc/4.8.3-2014q1/bin/../lib/gcc/arm-none-eabi/4.8.3/../../../../arm-none-eabi/lib/armv7-m\libc.a(lib_a-init.o)
                              c:/users/administrator/appdata/local/arduino15/packages/arduino/tools/arm-none-eabi-gcc/4.8.3-2014q1/bin/../lib/gcc/arm-none-eabi/4.8.3/../../../../arm-none-eabi/lib/armv7-m/crt0.o (__libc_init_array)
c:/users/administrator/appdata/local/arduino15/packages/arduino/tools/arm-none-eabi-gcc/4.8.3-2014q1/bin/../lib/gcc/arm-none-eabi/4.8.3/../../../../arm-none-eabi/lib/armv7-m\libc.a(lib_a-memset.o)
                              c:/users/administrator/appdata/local/arduino15/packages/arduino/tools/arm-none-eabi-gcc/4.8.3-2014q1/bin/../lib/gcc/arm-none-eabi/4.8.3/../../../../arm-none-eabi/lib/armv7-m/crt0.o (memset)
c:/users/administrator/appdata/local/arduino15/packages/arduino/tools/arm-none-eabi-gcc/4.8.3-2014q1/bin/../lib/gcc/arm-none-eabi/4.8.3/../../../../arm-none-eabi/lib/armv7-m\libc.a(lib_a-mktime.o)
                              RTClock\RTClock.cpp.o (mktime)
c:/users/administrator/appdata/local/arduino15/packages/arduino/tools/arm-none-eabi-gcc/4.8.3-2014q1/bin/../lib/gcc/arm-none-eabi/4.8.3/../../../../arm-none-eabi/lib/armv7-m\libc.a(lib_a-mktm_r.o)
                              c:/users/administrator/appdata/local/arduino15/packages/arduino/tools/arm-none-eabi-gcc/4.8.3-2014q1/bin/../lib/gcc/arm-none-eabi/4.8.3/../../../../arm-none-eabi/lib/armv7-m\libc.a(lib_a-mktime.o) (__tzcalc_limits)
c:/users/administrator/appdata/local/arduino15/packages/arduino/tools/arm-none-eabi-gcc/4.8.3-2014q1/bin/../lib/gcc/arm-none-eabi/4.8.3/../../../../arm-none-eabi/lib/armv7-m\libc.a(lib_a-rand.o)
                              C:\Users\Administrator\AppData\Local\Temp\VMBuilds\LoRa_Roll_Film\stm32_genericSTM32F103R\Release/core.a(wirish_math.cpp.o) (srand)
c:/users/administrator/appdata/local/arduino15/packages/arduino/tools/arm-none-eabi-gcc/4.8.3-2014q1/bin/../lib/gcc/arm-none-eabi/4.8.3/../../../../arm-none-eabi/lib/armv7-m\libc.a(lib_a-strlen.o)
                              BCD_CON.cpp.o (strlen)
c:/users/administrator/appdata/local/arduino15/packages/arduino/tools/arm-none-eabi-gcc/4.8.3-2014q1/bin/../lib/gcc/arm-none-eabi/4.8.3/../../../../arm-none-eabi/lib/armv7-m\libc.a(lib_a-tzlock.o)
                              c:/users/administrator/appdata/local/arduino15/packages/arduino/tools/arm-none-eabi-gcc/4.8.3-2014q1/bin/../lib/gcc/arm-none-eabi/4.8.3/../../../../arm-none-eabi/lib/armv7-m\libc.a(lib_a-mktime.o) (__tz_lock)
c:/users/administrator/appdata/local/arduino15/packages/arduino/tools/arm-none-eabi-gcc/4.8.3-2014q1/bin/../lib/gcc/arm-none-eabi/4.8.3/../../../../arm-none-eabi/lib/armv7-m\libc.a(lib_a-tzvars.o)
                              c:/users/administrator/appdata/local/arduino15/packages/arduino/tools/arm-none-eabi-gcc/4.8.3-2014q1/bin/../lib/gcc/arm-none-eabi/4.8.3/../../../../arm-none-eabi/lib/armv7-m\libc.a(lib_a-mktime.o) (_daylight)
c:/users/administrator/appdata/local/arduino15/packages/arduino/tools/arm-none-eabi-gcc/4.8.3-2014q1/bin/../lib/gcc/arm-none-eabi/4.8.3/../../../../arm-none-eabi/lib/armv7-m\libc.a(lib_a-__call_atexit.o)
                              c:/users/administrator/appdata/local/arduino15/packages/arduino/tools/arm-none-eabi-gcc/4.8.3-2014q1/bin/../lib/gcc/arm-none-eabi/4.8.3/../../../../arm-none-eabi/lib/armv7-m\libc.a(lib_a-exit.o) (__call_exitprocs)
c:/users/administrator/appdata/local/arduino15/packages/arduino/tools/arm-none-eabi-gcc/4.8.3-2014q1/bin/../lib/gcc/arm-none-eabi/4.8.3/../../../../arm-none-eabi/lib/armv7-m\libc.a(lib_a-atexit.o)
                              c:/users/administrator/appdata/local/arduino15/packages/arduino/tools/arm-none-eabi-gcc/4.8.3-2014q1/bin/../lib/gcc/arm-none-eabi/4.8.3/../../../../arm-none-eabi/lib/armv7-m\libc.a(lib_a-__call_atexit.o) (atexit)
c:/users/administrator/appdata/local/arduino15/packages/arduino/tools/arm-none-eabi-gcc/4.8.3-2014q1/bin/../lib/gcc/arm-none-eabi/4.8.3/../../../../arm-none-eabi/lib/armv7-m\libc.a(lib_a-div.o)
                              c:/users/administrator/appdata/local/arduino15/packages/arduino/tools/arm-none-eabi-gcc/4.8.3-2014q1/bin/../lib/gcc/arm-none-eabi/4.8.3/../../../../arm-none-eabi/lib/armv7-m\libc.a(lib_a-mktime.o) (div)
c:/users/administrator/appdata/local/arduino15/packages/arduino/tools/arm-none-eabi-gcc/4.8.3-2014q1/bin/../lib/gcc/arm-none-eabi/4.8.3/../../../../arm-none-eabi/lib/armv7-m\libc.a(lib_a-fini.o)
                              c:/users/administrator/appdata/local/arduino15/packages/arduino/tools/arm-none-eabi-gcc/4.8.3-2014q1/bin/../lib/gcc/arm-none-eabi/4.8.3/../../../../arm-none-eabi/lib/armv7-m\libc.a(lib_a-__call_atexit.o) (__libc_fini_array)
c:/users/administrator/appdata/local/arduino15/packages/arduino/tools/arm-none-eabi-gcc/4.8.3-2014q1/bin/../lib/gcc/arm-none-eabi/4.8.3/../../../../arm-none-eabi/lib/armv7-m\libc.a(lib_a-gettzinfo.o)
                              c:/users/administrator/appdata/local/arduino15/packages/arduino/tools/arm-none-eabi-gcc/4.8.3-2014q1/bin/../lib/gcc/arm-none-eabi/4.8.3/../../../../arm-none-eabi/lib/armv7-m\libc.a(lib_a-mktime.o) (__gettzinfo)
c:/users/administrator/appdata/local/arduino15/packages/arduino/tools/arm-none-eabi-gcc/4.8.3-2014q1/bin/../lib/gcc/arm-none-eabi/4.8.3/../../../../arm-none-eabi/lib/armv7-m\libc.a(lib_a-__atexit.o)
                              c:/users/administrator/appdata/local/arduino15/packages/arduino/tools/arm-none-eabi-gcc/4.8.3-2014q1/bin/../lib/gcc/arm-none-eabi/4.8.3/../../../../arm-none-eabi/lib/armv7-m\libc.a(lib_a-atexit.o) (__register_exitproc)

Allocating common symbols
Common symbol       size              file

systick_uptime_millis
                    0x4               C:\Users\Administrator\AppData\Local\Temp\VMBuilds\LoRa_Roll_Film\stm32_genericSTM32F103R\Release/core.a(systick.c.o)

Discarded input sections

 .text          0x00000000        0x0 c:/users/administrator/appdata/local/arduino15/packages/arduino/tools/arm-none-eabi-gcc/4.8.3-2014q1/bin/../lib/gcc/arm-none-eabi/4.8.3/armv7-m/crti.o
 .data          0x00000000        0x0 c:/users/administrator/appdata/local/arduino15/packages/arduino/tools/arm-none-eabi-gcc/4.8.3-2014q1/bin/../lib/gcc/arm-none-eabi/4.8.3/armv7-m/crti.o
 .bss           0x00000000        0x0 c:/users/administrator/appdata/local/arduino15/packages/arduino/tools/arm-none-eabi-gcc/4.8.3-2014q1/bin/../lib/gcc/arm-none-eabi/4.8.3/armv7-m/crti.o
 .data          0x00000000        0x4 c:/users/administrator/appdata/local/arduino15/packages/arduino/tools/arm-none-eabi-gcc/4.8.3-2014q1/bin/../lib/gcc/arm-none-eabi/4.8.3/armv7-m/crtbegin.o
 .text          0x00000000       0x74 c:/users/administrator/appdata/local/arduino15/packages/arduino/tools/arm-none-eabi-gcc/4.8.3-2014q1/bin/../lib/gcc/arm-none-eabi/4.8.3/../../../../arm-none-eabi/lib/armv7-m/crt0.o
 .data          0x00000000        0x0 c:/users/administrator/appdata/local/arduino15/packages/arduino/tools/arm-none-eabi-gcc/4.8.3-2014q1/bin/../lib/gcc/arm-none-eabi/4.8.3/../../../../arm-none-eabi/lib/armv7-m/crt0.o
 .bss           0x00000000        0x0 c:/users/administrator/appdata/local/arduino15/packages/arduino/tools/arm-none-eabi-gcc/4.8.3-2014q1/bin/../lib/gcc/arm-none-eabi/4.8.3/../../../../arm-none-eabi/lib/armv7-m/crt0.o
 .ARM.extab     0x00000000        0x0 c:/users/administrator/appdata/local/arduino15/packages/arduino/tools/arm-none-eabi-gcc/4.8.3-2014q1/bin/../lib/gcc/arm-none-eabi/4.8.3/../../../../arm-none-eabi/lib/armv7-m/crt0.o
 .ARM.exidx     0x00000000        0x8 c:/users/administrator/appdata/local/arduino15/packages/arduino/tools/arm-none-eabi-gcc/4.8.3-2014q1/bin/../lib/gcc/arm-none-eabi/4.8.3/../../../../arm-none-eabi/lib/armv7-m/crt0.o
 .text          0x00000000        0x0 LoRa_Roll_Film.cpp.o
 .data          0x00000000        0x0 LoRa_Roll_Film.cpp.o
 .bss           0x00000000        0x0 LoRa_Roll_Film.cpp.o
 .text._Z24Key_Reset_LoRa_Parameterv
                0x00000000       0x84 LoRa_Roll_Film.cpp.o
 .text          0x00000000        0x0 User_Clock.c.o
 .data          0x00000000        0x0 User_Clock.c.o
 .bss           0x00000000        0x0 User_Clock.c.o
 .text.monthLength
                0x00000000       0x20 User_Clock.c.o
 .text.osal_setClock
                0x00000000        0xc User_Clock.c.o
 .text.osal_getClock
                0x00000000        0xc User_Clock.c.o
 .text.osalTimeUpdate
                0x00000000       0x10 User_Clock.c.o
 .text.osal_ConvertUTCTime
                0x00000000      0x118 User_Clock.c.o
 .text.osal_ConvertUTCSecs
                0x00000000       0xbc User_Clock.c.o
 .bss.OSAL_timeSeconds
                0x00000000        0x4 User_Clock.c.o
 .text          0x00000000        0x0 AT24CXX.cpp.o
 .data          0x00000000        0x0 AT24CXX.cpp.o
 .bss           0x00000000        0x0 AT24CXX.cpp.o
 .bss.AT24C_02  0x00000000        0x1 AT24CXX.cpp.o
 .text          0x00000000        0x0 BCD_CON.cpp.o
 .data          0x00000000        0x0 BCD_CON.cpp.o
 .bss           0x00000000        0x0 BCD_CON.cpp.o
 .text._Z5ToBCDiPhS_S_
                0x00000000       0x64 BCD_CON.cpp.o
 .text._Z9ByteTOBcdh
                0x00000000       0x12 BCD_CON.cpp.o
 .text._Z7ASC2BCDPhPcj
                0x00000000       0x70 BCD_CON.cpp.o
 .text._Z7BCD2ASCPcPKcj
                0x00000000       0x34 BCD_CON.cpp.o
 .text._Z22FloatStringToIntStringPcS_Phi
                0x00000000       0x4c BCD_CON.cpp.o
 .text._Z13ulongtoStringPcm
                0x00000000       0x38 BCD_CON.cpp.o
 .text._Z8BCDtoDecPhi
                0x00000000       0x78 BCD_CON.cpp.o
 .text._Z8inttoBCDi
                0x00000000       0x18 BCD_CON.cpp.o
 .text._Z7PackBCDPcfii
                0x00000000      0x160 BCD_CON.cpp.o
 .text._Z9UnPackBCDPcii
                0x00000000      0x180 BCD_CON.cpp.o
 .text._Z11FindDecimalPc
                0x00000000       0x1e BCD_CON.cpp.o
 .text._Z11long_to_bcdm
                0x00000000        0x2 BCD_CON.cpp.o
 .rodata._ZL10ascii2bcd1
                0x00000000        0xa BCD_CON.cpp.o
 .rodata._ZL10ascii2bcd2
                0x00000000        0x6 BCD_CON.cpp.o
 .rodata._ZL9bcd2ascii
                0x00000000       0x10 BCD_CON.cpp.o
 .text          0x00000000        0x0 Command_Analysis.cpp.o
 .data          0x00000000        0x0 Command_Analysis.cpp.o
 .bss           0x00000000        0x0 Command_Analysis.cpp.o
 .text          0x00000000        0x0 fun_periph.cpp.o
 .data          0x00000000        0x0 fun_periph.cpp.o
 .bss           0x00000000        0x0 fun_periph.cpp.o
 .text          0x00000000        0x0 i2c.cpp.o
 .data          0x00000000        0x0 i2c.cpp.o
 .bss           0x00000000        0x0 i2c.cpp.o
 .text          0x00000000        0x0 IAP.cpp.o
 .data          0x00000000        0x0 IAP.cpp.o
 .bss           0x00000000        0x0 IAP.cpp.o
 .text._Z7MSR_MSPj
                0x00000000        0x8 IAP.cpp.o
 .text._Z8Jump_OBJj
                0x00000000       0x28 IAP.cpp.o
 .bss.Jump_Addr
                0x00000000        0x4 IAP.cpp.o
 .text          0x00000000        0x0 LoRa.cpp.o
 .data          0x00000000        0x0 LoRa.cpp.o
 .bss           0x00000000        0x0 LoRa.cpp.o
 .text._ZN4LoRa13String_to_HexEPhh
                0x00000000       0x44 LoRa.cpp.o
 .group         0x00000000        0x8 Memory.cpp.o
 .group         0x00000000        0x8 Memory.cpp.o
 .text          0x00000000        0x0 Memory.cpp.o
 .data          0x00000000        0x0 Memory.cpp.o
 .bss           0x00000000        0x0 Memory.cpp.o
 .text._ZN13SN_Operations19Verify_Save_SN_CodeEv
                0x00000000       0x12 Memory.cpp.o
 .text._ZN13SN_Operations23Verify_Save_BKP_SN_CodeEv
                0x00000000       0x12 Memory.cpp.o
 .text._ZN11LoRa_Config23Verify_LoRa_Config_FlagEv
                0x00000000       0x12 Memory.cpp.o
 .text._ZN11LoRa_Config22Clear_LoRa_Config_FlagEv
                0x00000000       0x34 Memory.cpp.o
 .text._ZN11LoRa_Config24Clear_LoRa_Com_Mode_FlagEv
                0x00000000       0x32 Memory.cpp.o
 .text._ZN17Soft_Hard_Vertion21Save_Software_versionEhh
                0x00000000       0x26 Memory.cpp.o
 .text._ZN17Soft_Hard_Vertion21Save_hardware_versionEhh
                0x00000000       0x26 Memory.cpp.o
 .text._ZN15Roll_Operations24Verify_Group_Number_FlagEv
                0x00000000       0x12 Memory.cpp.o
 .text._ZN15Roll_Operations23Verify_Area_Number_FlagEv
                0x00000000       0x12 Memory.cpp.o
 .bss.Vertion   0x00000000        0x1 Memory.cpp.o
 .text          0x00000000        0x0 Motor.cpp.o
 .data          0x00000000        0x0 Motor.cpp.o
 .bss           0x00000000        0x0 Motor.cpp.o
 .bss.gLastOpening
                0x00000000        0x1 Motor.cpp.o
 .bss.gDetectMotorLimitFlag
                0x00000000        0x1 Motor.cpp.o
 .bss.gCurrentOpening
                0x00000000        0x1 Motor.cpp.o
 .text          0x00000000        0x0 Private_RTC.cpp.o
 .data          0x00000000        0x0 Private_RTC.cpp.o
 .bss           0x00000000        0x0 Private_RTC.cpp.o
 .text._ZN4date10Update_RTCEPh
                0x00000000       0x4c Private_RTC.cpp.o
 .text._ZN4date7Get_RTCEPh
                0x00000000       0x4c Private_RTC.cpp.o
 .bss.Private_RTC
                0x00000000        0x1 Private_RTC.cpp.o
 .bss.RtcTime   0x00000000        0x8 Private_RTC.cpp.o
 .text          0x00000000        0x0 Private_Timer.cpp.o
 .data          0x00000000        0x0 Private_Timer.cpp.o
 .bss           0x00000000        0x0 Private_Timer.cpp.o
 .text          0x00000000        0x0 public.cpp.o
 .data          0x00000000        0x0 public.cpp.o
 .bss           0x00000000        0x0 public.cpp.o
 .text._ZN8TypeConv10Hex_To_DecEh
                0x00000000       0x12 public.cpp.o
 .text._ZN8TypeConv10Hex_To_DecEPh
                0x00000000       0x14 public.cpp.o
 .text._ZN8TypeConv10Dec_To_HexEPh
                0x00000000       0x14 public.cpp.o
 .text          0x00000000        0x0 receipt.cpp.o
 .data          0x00000000        0x0 receipt.cpp.o
 .bss           0x00000000        0x0 receipt.cpp.o
 .text._ZN7Receipt24Clear_Server_LoRa_BufferEv
                0x00000000       0x30 receipt.cpp.o
 .rodata        0x00000000        0x6 receipt.cpp.o
 .text          0x00000000        0x0 Security.cpp.o
 .data          0x00000000        0x0 Security.cpp.o
 .bss           0x00000000        0x0 Security.cpp.o
 .text          0x00000000        0x0 User_CRC8.cpp.o
 .data          0x00000000        0x0 User_CRC8.cpp.o
 .bss           0x00000000        0x0 User_CRC8.cpp.o
 .text          0x00000000        0x0 RTClock\RTClock.cpp.o
 .data          0x00000000        0x0 RTClock\RTClock.cpp.o
 .bss           0x00000000        0x0 RTClock\RTClock.cpp.o
 .text._ZN7RTClockC2Ev
                0x00000000       0x16 RTClock\RTClock.cpp.o
 .text._ZN7RTClock7setTimeEl
                0x00000000        0x6 RTClock\RTClock.cpp.o
 .text._ZN7RTClock7setTimeEP2tm
                0x00000000       0x10 RTClock\RTClock.cpp.o
 .text._ZN7RTClock7getTimeEv
                0x00000000        0x4 RTClock\RTClock.cpp.o
 .text._ZN7RTClock7getTimeEP2tm
                0x00000000       0x18 RTClock\RTClock.cpp.o
 .text._ZN7RTClock11createAlarmEPFvvEl
                0x00000000       0x16 RTClock\RTClock.cpp.o
 .text._ZN7RTClock22attachSecondsInterruptEPFvvE
                0x00000000        0x6 RTClock\RTClock.cpp.o
 .text._ZN7RTClock22detachSecondsInterruptEv
                0x00000000        0x6 RTClock\RTClock.cpp.o
 .text._ZN7RTClock11createAlarmEPFvvEP2tm
                0x00000000       0x1a RTClock\RTClock.cpp.o
 .text._ZN7RTClock12setAlarmTimeEP2tm
                0x00000000       0x10 RTClock\RTClock.cpp.o
 .text._ZN7RTClock12setAlarmTimeEl
                0x00000000        0x6 RTClock\RTClock.cpp.o
 .text          0x00000000        0x0 RTClock\utility\rtc_util.c.o
 .data          0x00000000        0x0 RTClock\utility\rtc_util.c.o
 .bss           0x00000000        0x0 RTClock\utility\rtc_util.c.o
 .text.rtc_attach_interrupt
                0x00000000       0x60 RTClock\utility\rtc_util.c.o
 .text.rtc_detach_interrupt
                0x00000000       0x40 RTClock\utility\rtc_util.c.o
 .text.rtc_get_count
                0x00000000       0x24 RTClock\utility\rtc_util.c.o
 .text.rtc_set_count
                0x00000000       0x34 RTClock\utility\rtc_util.c.o
 .text.rtc_get_divider
                0x00000000       0x28 RTClock\utility\rtc_util.c.o
 .text.rtc_set_alarm
                0x00000000       0x34 RTClock\utility\rtc_util.c.o
 .text          0x00000000        0x0 C:\Users\Administrator\AppData\Local\Temp\VMBCore\arduino16x\a25b0c93d50495b56da79188cbb05a7a\variant\board.cpp.o
 .data          0x00000000        0x0 C:\Users\Administrator\AppData\Local\Temp\VMBCore\arduino16x\a25b0c93d50495b56da79188cbb05a7a\variant\board.cpp.o
 .bss           0x00000000        0x0 C:\Users\Administrator\AppData\Local\Temp\VMBCore\arduino16x\a25b0c93d50495b56da79188cbb05a7a\variant\board.cpp.o
 .USER_FLASH    0x00000000       0x2a C:\Users\Administrator\AppData\Local\Temp\VMBCore\arduino16x\a25b0c93d50495b56da79188cbb05a7a\variant\board.cpp.o
 .text          0x00000000        0x0 C:\Users\Administrator\AppData\Local\Temp\VMBCore\arduino16x\a25b0c93d50495b56da79188cbb05a7a\variant\boards.cpp.o
 .data          0x00000000        0x0 C:\Users\Administrator\AppData\Local\Temp\VMBCore\arduino16x\a25b0c93d50495b56da79188cbb05a7a\variant\boards.cpp.o
 .bss           0x00000000        0x0 C:\Users\Administrator\AppData\Local\Temp\VMBCore\arduino16x\a25b0c93d50495b56da79188cbb05a7a\variant\boards.cpp.o
 .text._Z12boardUsesPinh
                0x00000000       0x1c C:\Users\Administrator\AppData\Local\Temp\VMBCore\arduino16x\a25b0c93d50495b56da79188cbb05a7a\variant\boards.cpp.o
 .text          0x00000000        0x0 C:\Users\Administrator\AppData\Local\Temp\VMBCore\arduino16x\a25b0c93d50495b56da79188cbb05a7a\variant\boards_setup.cpp.o
 .data          0x00000000        0x0 C:\Users\Administrator\AppData\Local\Temp\VMBCore\arduino16x\a25b0c93d50495b56da79188cbb05a7a\variant\boards_setup.cpp.o
 .bss           0x00000000        0x0 C:\Users\Administrator\AppData\Local\Temp\VMBCore\arduino16x\a25b0c93d50495b56da79188cbb05a7a\variant\boards_setup.cpp.o
 .data          0x00000000        0x0 C:\Users\Administrator\AppData\Local\Temp\VMBCore\arduino16x\a25b0c93d50495b56da79188cbb05a7a\variant\start.S.o
 .bss           0x00000000        0x0 C:\Users\Administrator\AppData\Local\Temp\VMBCore\arduino16x\a25b0c93d50495b56da79188cbb05a7a\variant\start.S.o
 .ARM.extab     0x00000000        0x0 C:\Users\Administrator\AppData\Local\Temp\VMBCore\arduino16x\a25b0c93d50495b56da79188cbb05a7a\variant\start.S.o
 .text          0x00000000        0x0 C:\Users\Administrator\AppData\Local\Temp\VMBCore\arduino16x\a25b0c93d50495b56da79188cbb05a7a\variant\start_c.c.o
 .data          0x00000000        0x0 C:\Users\Administrator\AppData\Local\Temp\VMBCore\arduino16x\a25b0c93d50495b56da79188cbb05a7a\variant\start_c.c.o
 .bss           0x00000000        0x0 C:\Users\Administrator\AppData\Local\Temp\VMBCore\arduino16x\a25b0c93d50495b56da79188cbb05a7a\variant\start_c.c.o
 .text          0x00000000        0x0 C:\Users\Administrator\AppData\Local\Temp\VMBCore\arduino16x\a25b0c93d50495b56da79188cbb05a7a\variant\syscalls.c.o
 .data          0x00000000        0x0 C:\Users\Administrator\AppData\Local\Temp\VMBCore\arduino16x\a25b0c93d50495b56da79188cbb05a7a\variant\syscalls.c.o
 .bss           0x00000000        0x0 C:\Users\Administrator\AppData\Local\Temp\VMBCore\arduino16x\a25b0c93d50495b56da79188cbb05a7a\variant\syscalls.c.o
 .text._sbrk    0x00000000       0x44 C:\Users\Administrator\AppData\Local\Temp\VMBCore\arduino16x\a25b0c93d50495b56da79188cbb05a7a\variant\syscalls.c.o
 .text._open    0x00000000        0x8 C:\Users\Administrator\AppData\Local\Temp\VMBCore\arduino16x\a25b0c93d50495b56da79188cbb05a7a\variant\syscalls.c.o
 .text._close   0x00000000        0x4 C:\Users\Administrator\AppData\Local\Temp\VMBCore\arduino16x\a25b0c93d50495b56da79188cbb05a7a\variant\syscalls.c.o
 .text._fstat   0x00000000        0xa C:\Users\Administrator\AppData\Local\Temp\VMBCore\arduino16x\a25b0c93d50495b56da79188cbb05a7a\variant\syscalls.c.o
 .text._isatty  0x00000000        0x4 C:\Users\Administrator\AppData\Local\Temp\VMBCore\arduino16x\a25b0c93d50495b56da79188cbb05a7a\variant\syscalls.c.o
 .text.isatty   0x00000000        0x4 C:\Users\Administrator\AppData\Local\Temp\VMBCore\arduino16x\a25b0c93d50495b56da79188cbb05a7a\variant\syscalls.c.o
 .text._lseek   0x00000000        0x6 C:\Users\Administrator\AppData\Local\Temp\VMBCore\arduino16x\a25b0c93d50495b56da79188cbb05a7a\variant\syscalls.c.o
 .text.getch    0x00000000        0x4 C:\Users\Administrator\AppData\Local\Temp\VMBCore\arduino16x\a25b0c93d50495b56da79188cbb05a7a\variant\syscalls.c.o
 .text._read    0x00000000        0xe C:\Users\Administrator\AppData\Local\Temp\VMBCore\arduino16x\a25b0c93d50495b56da79188cbb05a7a\variant\syscalls.c.o
 .text.putch    0x00000000        0x2 C:\Users\Administrator\AppData\Local\Temp\VMBCore\arduino16x\a25b0c93d50495b56da79188cbb05a7a\variant\syscalls.c.o
 .text.cgets    0x00000000       0x78 C:\Users\Administrator\AppData\Local\Temp\VMBCore\arduino16x\a25b0c93d50495b56da79188cbb05a7a\variant\syscalls.c.o
 .text._write   0x00000000       0x1a C:\Users\Administrator\AppData\Local\Temp\VMBCore\arduino16x\a25b0c93d50495b56da79188cbb05a7a\variant\syscalls.c.o
 .text.fgets    0x00000000        0xc C:\Users\Administrator\AppData\Local\Temp\VMBCore\arduino16x\a25b0c93d50495b56da79188cbb05a7a\variant\syscalls.c.o
 .bss.pbreak.4444
                0x00000000        0x4 C:\Users\Administrator\AppData\Local\Temp\VMBCore\arduino16x\a25b0c93d50495b56da79188cbb05a7a\variant\syscalls.c.o
 .data          0x00000000        0x0 C:\Users\Administrator\AppData\Local\Temp\VMBuilds\LoRa_Roll_Film\stm32_genericSTM32F103R\Release/core.a(exc.S.o)
 .bss           0x00000000        0x0 C:\Users\Administrator\AppData\Local\Temp\VMBuilds\LoRa_Roll_Film\stm32_genericSTM32F103R\Release/core.a(exc.S.o)
 .data          0x00000000        0x0 C:\Users\Administrator\AppData\Local\Temp\VMBuilds\LoRa_Roll_Film\stm32_genericSTM32F103R\Release/core.a(isrs.S.o)
 .bss           0x00000000        0x0 C:\Users\Administrator\AppData\Local\Temp\VMBuilds\LoRa_Roll_Film\stm32_genericSTM32F103R\Release/core.a(isrs.S.o)
 .text          0x00000000        0x0 C:\Users\Administrator\AppData\Local\Temp\VMBuilds\LoRa_Roll_Film\stm32_genericSTM32F103R\Release/core.a(vector_table.S.o)
 .data          0x00000000        0x0 C:\Users\Administrator\AppData\Local\Temp\VMBuilds\LoRa_Roll_Film\stm32_genericSTM32F103R\Release/core.a(vector_table.S.o)
 .bss           0x00000000        0x0 C:\Users\Administrator\AppData\Local\Temp\VMBuilds\LoRa_Roll_Film\stm32_genericSTM32F103R\Release/core.a(vector_table.S.o)
 .text          0x00000000        0x0 C:\Users\Administrator\AppData\Local\Temp\VMBuilds\LoRa_Roll_Film\stm32_genericSTM32F103R\Release/core.a(adc.c.o)
 .data          0x00000000        0x0 C:\Users\Administrator\AppData\Local\Temp\VMBuilds\LoRa_Roll_Film\stm32_genericSTM32F103R\Release/core.a(adc.c.o)
 .bss           0x00000000        0x0 C:\Users\Administrator\AppData\Local\Temp\VMBuilds\LoRa_Roll_Film\stm32_genericSTM32F103R\Release/core.a(adc.c.o)
 .text          0x00000000        0x0 C:\Users\Administrator\AppData\Local\Temp\VMBuilds\LoRa_Roll_Film\stm32_genericSTM32F103R\Release/core.a(adc_f1.c.o)
 .data          0x00000000        0x0 C:\Users\Administrator\AppData\Local\Temp\VMBuilds\LoRa_Roll_Film\stm32_genericSTM32F103R\Release/core.a(adc_f1.c.o)
 .bss           0x00000000        0x0 C:\Users\Administrator\AppData\Local\Temp\VMBuilds\LoRa_Roll_Film\stm32_genericSTM32F103R\Release/core.a(adc_f1.c.o)
 .text.adc_enable_irq
                0x00000000       0x30 C:\Users\Administrator\AppData\Local\Temp\VMBuilds\LoRa_Roll_Film\stm32_genericSTM32F103R\Release/core.a(adc_f1.c.o)
 .text.adc_attach_interrupt
                0x00000000        0xa C:\Users\Administrator\AppData\Local\Temp\VMBuilds\LoRa_Roll_Film\stm32_genericSTM32F103R\Release/core.a(adc_f1.c.o)
 .text.adc_config_gpio
                0x00000000        0xa C:\Users\Administrator\AppData\Local\Temp\VMBuilds\LoRa_Roll_Film\stm32_genericSTM32F103R\Release/core.a(adc_f1.c.o)
 .text          0x00000000        0x0 C:\Users\Administrator\AppData\Local\Temp\VMBuilds\LoRa_Roll_Film\stm32_genericSTM32F103R\Release/core.a(bkp_f1.c.o)
 .data          0x00000000        0x0 C:\Users\Administrator\AppData\Local\Temp\VMBuilds\LoRa_Roll_Film\stm32_genericSTM32F103R\Release/core.a(bkp_f1.c.o)
 .bss           0x00000000        0x0 C:\Users\Administrator\AppData\Local\Temp\VMBuilds\LoRa_Roll_Film\stm32_genericSTM32F103R\Release/core.a(bkp_f1.c.o)
 .data.bkp      0x00000000        0x4 C:\Users\Administrator\AppData\Local\Temp\VMBuilds\LoRa_Roll_Film\stm32_genericSTM32F103R\Release/core.a(bkp_f1.c.o)
 .data.BKP      0x00000000        0x4 C:\Users\Administrator\AppData\Local\Temp\VMBuilds\LoRa_Roll_Film\stm32_genericSTM32F103R\Release/core.a(bkp_f1.c.o)
 .text          0x00000000        0x0 C:\Users\Administrator\AppData\Local\Temp\VMBuilds\LoRa_Roll_Film\stm32_genericSTM32F103R\Release/core.a(flash.c.o)
 .data          0x00000000        0x0 C:\Users\Administrator\AppData\Local\Temp\VMBuilds\LoRa_Roll_Film\stm32_genericSTM32F103R\Release/core.a(flash.c.o)
 .bss           0x00000000        0x0 C:\Users\Administrator\AppData\Local\Temp\VMBuilds\LoRa_Roll_Film\stm32_genericSTM32F103R\Release/core.a(flash.c.o)
 .text          0x00000000        0x0 C:\Users\Administrator\AppData\Local\Temp\VMBuilds\LoRa_Roll_Film\stm32_genericSTM32F103R\Release/core.a(gpio_f1.c.o)
 .data          0x00000000        0x0 C:\Users\Administrator\AppData\Local\Temp\VMBuilds\LoRa_Roll_Film\stm32_genericSTM32F103R\Release/core.a(gpio_f1.c.o)
 .bss           0x00000000        0x0 C:\Users\Administrator\AppData\Local\Temp\VMBuilds\LoRa_Roll_Film\stm32_genericSTM32F103R\Release/core.a(gpio_f1.c.o)
 .text.gpio_get_mode
                0x00000000       0x2a C:\Users\Administrator\AppData\Local\Temp\VMBuilds\LoRa_Roll_Film\stm32_genericSTM32F103R\Release/core.a(gpio_f1.c.o)
 .text.afio_remap
                0x00000000       0x20 C:\Users\Administrator\AppData\Local\Temp\VMBuilds\LoRa_Roll_Film\stm32_genericSTM32F103R\Release/core.a(gpio_f1.c.o)
 .rodata.GPIOA  0x00000000        0x4 C:\Users\Administrator\AppData\Local\Temp\VMBuilds\LoRa_Roll_Film\stm32_genericSTM32F103R\Release/core.a(gpio_f1.c.o)
 .rodata.GPIOC  0x00000000        0x4 C:\Users\Administrator\AppData\Local\Temp\VMBuilds\LoRa_Roll_Film\stm32_genericSTM32F103R\Release/core.a(gpio_f1.c.o)
 .rodata.GPIOD  0x00000000        0x4 C:\Users\Administrator\AppData\Local\Temp\VMBuilds\LoRa_Roll_Film\stm32_genericSTM32F103R\Release/core.a(gpio_f1.c.o)
 .rodata.GPIOE  0x00000000        0x4 C:\Users\Administrator\AppData\Local\Temp\VMBuilds\LoRa_Roll_Film\stm32_genericSTM32F103R\Release/core.a(gpio_f1.c.o)
 .rodata.GPIOF  0x00000000        0x4 C:\Users\Administrator\AppData\Local\Temp\VMBuilds\LoRa_Roll_Film\stm32_genericSTM32F103R\Release/core.a(gpio_f1.c.o)
 .rodata.GPIOG  0x00000000        0x4 C:\Users\Administrator\AppData\Local\Temp\VMBuilds\LoRa_Roll_Film\stm32_genericSTM32F103R\Release/core.a(gpio_f1.c.o)
 .text          0x00000000        0x0 C:\Users\Administrator\AppData\Local\Temp\VMBuilds\LoRa_Roll_Film\stm32_genericSTM32F103R\Release/core.a(iwdg.c.o)
 .data          0x00000000        0x0 C:\Users\Administrator\AppData\Local\Temp\VMBuilds\LoRa_Roll_Film\stm32_genericSTM32F103R\Release/core.a(iwdg.c.o)
 .bss           0x00000000        0x0 C:\Users\Administrator\AppData\Local\Temp\VMBuilds\LoRa_Roll_Film\stm32_genericSTM32F103R\Release/core.a(iwdg.c.o)
 .text          0x00000000        0x0 C:\Users\Administrator\AppData\Local\Temp\VMBuilds\LoRa_Roll_Film\stm32_genericSTM32F103R\Release/core.a(nvic.c.o)
 .data          0x00000000        0x0 C:\Users\Administrator\AppData\Local\Temp\VMBuilds\LoRa_Roll_Film\stm32_genericSTM32F103R\Release/core.a(nvic.c.o)
 .bss           0x00000000        0x0 C:\Users\Administrator\AppData\Local\Temp\VMBuilds\LoRa_Roll_Film\stm32_genericSTM32F103R\Release/core.a(nvic.c.o)
 .text.nvic_set_vector_table
                0x00000000       0x14 C:\Users\Administrator\AppData\Local\Temp\VMBuilds\LoRa_Roll_Film\stm32_genericSTM32F103R\Release/core.a(nvic.c.o)
 .text          0x00000000        0x0 C:\Users\Administrator\AppData\Local\Temp\VMBuilds\LoRa_Roll_Film\stm32_genericSTM32F103R\Release/core.a(rcc.c.o)
 .data          0x00000000        0x0 C:\Users\Administrator\AppData\Local\Temp\VMBuilds\LoRa_Roll_Film\stm32_genericSTM32F103R\Release/core.a(rcc.c.o)
 .bss           0x00000000        0x0 C:\Users\Administrator\AppData\Local\Temp\VMBuilds\LoRa_Roll_Film\stm32_genericSTM32F103R\Release/core.a(rcc.c.o)
 .text          0x00000000        0x0 C:\Users\Administrator\AppData\Local\Temp\VMBuilds\LoRa_Roll_Film\stm32_genericSTM32F103R\Release/core.a(rcc_f1.c.o)
 .data          0x00000000        0x0 C:\Users\Administrator\AppData\Local\Temp\VMBuilds\LoRa_Roll_Film\stm32_genericSTM32F103R\Release/core.a(rcc_f1.c.o)
 .bss           0x00000000        0x0 C:\Users\Administrator\AppData\Local\Temp\VMBuilds\LoRa_Roll_Film\stm32_genericSTM32F103R\Release/core.a(rcc_f1.c.o)
 .text.rcc_clk_init
                0x00000000       0x3c C:\Users\Administrator\AppData\Local\Temp\VMBuilds\LoRa_Roll_Film\stm32_genericSTM32F103R\Release/core.a(rcc_f1.c.o)
 .text          0x00000000        0x0 C:\Users\Administrator\AppData\Local\Temp\VMBuilds\LoRa_Roll_Film\stm32_genericSTM32F103R\Release/core.a(systick.c.o)
 .data          0x00000000        0x0 C:\Users\Administrator\AppData\Local\Temp\VMBuilds\LoRa_Roll_Film\stm32_genericSTM32F103R\Release/core.a(systick.c.o)
 .bss           0x00000000        0x0 C:\Users\Administrator\AppData\Local\Temp\VMBuilds\LoRa_Roll_Film\stm32_genericSTM32F103R\Release/core.a(systick.c.o)
 .text.systick_disable
                0x00000000        0xc C:\Users\Administrator\AppData\Local\Temp\VMBuilds\LoRa_Roll_Film\stm32_genericSTM32F103R\Release/core.a(systick.c.o)
 .text.systick_enable
                0x00000000        0xc C:\Users\Administrator\AppData\Local\Temp\VMBuilds\LoRa_Roll_Film\stm32_genericSTM32F103R\Release/core.a(systick.c.o)
 .text.systick_attach_callback
                0x00000000        0xc C:\Users\Administrator\AppData\Local\Temp\VMBuilds\LoRa_Roll_Film\stm32_genericSTM32F103R\Release/core.a(systick.c.o)
 .text          0x00000000        0x0 C:\Users\Administrator\AppData\Local\Temp\VMBuilds\LoRa_Roll_Film\stm32_genericSTM32F103R\Release/core.a(timer.c.o)
 .data          0x00000000        0x0 C:\Users\Administrator\AppData\Local\Temp\VMBuilds\LoRa_Roll_Film\stm32_genericSTM32F103R\Release/core.a(timer.c.o)
 .bss           0x00000000        0x0 C:\Users\Administrator\AppData\Local\Temp\VMBuilds\LoRa_Roll_Film\stm32_genericSTM32F103R\Release/core.a(timer.c.o)
 .text.timer_disable
                0x00000000       0x12 C:\Users\Administrator\AppData\Local\Temp\VMBuilds\LoRa_Roll_Film\stm32_genericSTM32F103R\Release/core.a(timer.c.o)
 .text.get_direction
                0x00000000        0xe C:\Users\Administrator\AppData\Local\Temp\VMBuilds\LoRa_Roll_Film\stm32_genericSTM32F103R\Release/core.a(timer.c.o)
 .rodata.TIMER1
                0x00000000        0x4 C:\Users\Administrator\AppData\Local\Temp\VMBuilds\LoRa_Roll_Film\stm32_genericSTM32F103R\Release/core.a(timer.c.o)
 .rodata.TIMER2
                0x00000000        0x4 C:\Users\Administrator\AppData\Local\Temp\VMBuilds\LoRa_Roll_Film\stm32_genericSTM32F103R\Release/core.a(timer.c.o)
 .rodata.TIMER3
                0x00000000        0x4 C:\Users\Administrator\AppData\Local\Temp\VMBuilds\LoRa_Roll_Film\stm32_genericSTM32F103R\Release/core.a(timer.c.o)
 .rodata.TIMER4
                0x00000000        0x4 C:\Users\Administrator\AppData\Local\Temp\VMBuilds\LoRa_Roll_Film\stm32_genericSTM32F103R\Release/core.a(timer.c.o)
 .rodata.TIMER5
                0x00000000        0x4 C:\Users\Administrator\AppData\Local\Temp\VMBuilds\LoRa_Roll_Film\stm32_genericSTM32F103R\Release/core.a(timer.c.o)
 .rodata.TIMER6
                0x00000000        0x4 C:\Users\Administrator\AppData\Local\Temp\VMBuilds\LoRa_Roll_Film\stm32_genericSTM32F103R\Release/core.a(timer.c.o)
 .rodata.TIMER7
                0x00000000        0x4 C:\Users\Administrator\AppData\Local\Temp\VMBuilds\LoRa_Roll_Film\stm32_genericSTM32F103R\Release/core.a(timer.c.o)
 .rodata.TIMER8
                0x00000000        0x4 C:\Users\Administrator\AppData\Local\Temp\VMBuilds\LoRa_Roll_Film\stm32_genericSTM32F103R\Release/core.a(timer.c.o)
 .text          0x00000000        0x0 C:\Users\Administrator\AppData\Local\Temp\VMBuilds\LoRa_Roll_Film\stm32_genericSTM32F103R\Release/core.a(usart_f1.c.o)
 .data          0x00000000        0x0 C:\Users\Administrator\AppData\Local\Temp\VMBuilds\LoRa_Roll_Film\stm32_genericSTM32F103R\Release/core.a(usart_f1.c.o)
 .bss           0x00000000        0x0 C:\Users\Administrator\AppData\Local\Temp\VMBuilds\LoRa_Roll_Film\stm32_genericSTM32F103R\Release/core.a(usart_f1.c.o)
 .text.usart_foreach
                0x00000000       0x38 C:\Users\Administrator\AppData\Local\Temp\VMBuilds\LoRa_Roll_Film\stm32_genericSTM32F103R\Release/core.a(usart_f1.c.o)
 .text          0x00000000        0x0 C:\Users\Administrator\AppData\Local\Temp\VMBuilds\LoRa_Roll_Film\stm32_genericSTM32F103R\Release/core.a(usart_private.c.o)
 .data          0x00000000        0x0 C:\Users\Administrator\AppData\Local\Temp\VMBuilds\LoRa_Roll_Film\stm32_genericSTM32F103R\Release/core.a(usart_private.c.o)
 .bss           0x00000000        0x0 C:\Users\Administrator\AppData\Local\Temp\VMBuilds\LoRa_Roll_Film\stm32_genericSTM32F103R\Release/core.a(usart_private.c.o)
 .text          0x00000000        0x0 C:\Users\Administrator\AppData\Local\Temp\VMBuilds\LoRa_Roll_Film\stm32_genericSTM32F103R\Release/core.a(util.c.o)
 .data          0x00000000        0x0 C:\Users\Administrator\AppData\Local\Temp\VMBuilds\LoRa_Roll_Film\stm32_genericSTM32F103R\Release/core.a(util.c.o)
 .bss           0x00000000        0x0 C:\Users\Administrator\AppData\Local\Temp\VMBuilds\LoRa_Roll_Film\stm32_genericSTM32F103R\Release/core.a(util.c.o)
 .text.__assert_func
                0x00000000        0x8 C:\Users\Administrator\AppData\Local\Temp\VMBuilds\LoRa_Roll_Film\stm32_genericSTM32F103R\Release/core.a(util.c.o)
 .text.abort    0x00000000       0x1c C:\Users\Administrator\AppData\Local\Temp\VMBuilds\LoRa_Roll_Film\stm32_genericSTM32F103R\Release/core.a(util.c.o)
 .text          0x00000000        0x0 C:\Users\Administrator\AppData\Local\Temp\VMBuilds\LoRa_Roll_Film\stm32_genericSTM32F103R\Release/core.a(ext_interrupts.cpp.o)
 .data          0x00000000        0x0 C:\Users\Administrator\AppData\Local\Temp\VMBuilds\LoRa_Roll_Film\stm32_genericSTM32F103R\Release/core.a(ext_interrupts.cpp.o)
 .bss           0x00000000        0x0 C:\Users\Administrator\AppData\Local\Temp\VMBuilds\LoRa_Roll_Film\stm32_genericSTM32F103R\Release/core.a(ext_interrupts.cpp.o)
 .text._Z15attachInterrupthPFvPvES_17ExtIntTriggerMode
                0x00000000       0x40 C:\Users\Administrator\AppData\Local\Temp\VMBuilds\LoRa_Roll_Film\stm32_genericSTM32F103R\Release/core.a(ext_interrupts.cpp.o)
 .group         0x00000000        0x8 C:\Users\Administrator\AppData\Local\Temp\VMBuilds\LoRa_Roll_Film\stm32_genericSTM32F103R\Release/core.a(HardwareSerial.cpp.o)
 .text          0x00000000        0x0 C:\Users\Administrator\AppData\Local\Temp\VMBuilds\LoRa_Roll_Film\stm32_genericSTM32F103R\Release/core.a(HardwareSerial.cpp.o)
 .data          0x00000000        0x0 C:\Users\Administrator\AppData\Local\Temp\VMBuilds\LoRa_Roll_Film\stm32_genericSTM32F103R\Release/core.a(HardwareSerial.cpp.o)
 .bss           0x00000000        0x0 C:\Users\Administrator\AppData\Local\Temp\VMBuilds\LoRa_Roll_Film\stm32_genericSTM32F103R\Release/core.a(HardwareSerial.cpp.o)
 .text._ZN14HardwareSerial17availableForWriteEv
                0x00000000        0x4 C:\Users\Administrator\AppData\Local\Temp\VMBuilds\LoRa_Roll_Film\stm32_genericSTM32F103R\Release/core.a(HardwareSerial.cpp.o)
 .rodata._ZTV6Stream
                0x00000000       0x28 C:\Users\Administrator\AppData\Local\Temp\VMBuilds\LoRa_Roll_Film\stm32_genericSTM32F103R\Release/core.a(HardwareSerial.cpp.o)
 .text          0x00000000        0x0 C:\Users\Administrator\AppData\Local\Temp\VMBuilds\LoRa_Roll_Film\stm32_genericSTM32F103R\Release/core.a(HardwareTimer.cpp.o)
 .data          0x00000000        0x0 C:\Users\Administrator\AppData\Local\Temp\VMBuilds\LoRa_Roll_Film\stm32_genericSTM32F103R\Release/core.a(HardwareTimer.cpp.o)
 .bss           0x00000000        0x0 C:\Users\Administrator\AppData\Local\Temp\VMBuilds\LoRa_Roll_Film\stm32_genericSTM32F103R\Release/core.a(HardwareTimer.cpp.o)
 .text._ZN13HardwareTimer17getPrescaleFactorEv
                0x00000000        0xc C:\Users\Administrator\AppData\Local\Temp\VMBuilds\LoRa_Roll_Film\stm32_genericSTM32F103R\Release/core.a(HardwareTimer.cpp.o)
 .text._ZN13HardwareTimer11getOverflowEv
                0x00000000        0xa C:\Users\Administrator\AppData\Local\Temp\VMBuilds\LoRa_Roll_Film\stm32_genericSTM32F103R\Release/core.a(HardwareTimer.cpp.o)
 .text._ZN13HardwareTimer11setOverflowEt
                0x00000000        0x8 C:\Users\Administrator\AppData\Local\Temp\VMBuilds\LoRa_Roll_Film\stm32_genericSTM32F103R\Release/core.a(HardwareTimer.cpp.o)
 .text._ZN13HardwareTimer8getCountEv
                0x00000000        0xa C:\Users\Administrator\AppData\Local\Temp\VMBuilds\LoRa_Roll_Film\stm32_genericSTM32F103R\Release/core.a(HardwareTimer.cpp.o)
 .text._ZN13HardwareTimer7setModeEi10timer_mode
                0x00000000        0x8 C:\Users\Administrator\AppData\Local\Temp\VMBuilds\LoRa_Roll_Film\stm32_genericSTM32F103R\Release/core.a(HardwareTimer.cpp.o)
 .text._ZN13HardwareTimer10getCompareEi
                0x00000000       0x16 C:\Users\Administrator\AppData\Local\Temp\VMBuilds\LoRa_Roll_Film\stm32_genericSTM32F103R\Release/core.a(HardwareTimer.cpp.o)
 .text._ZN13HardwareTimer10setCompareEit
                0x00000000       0x1e C:\Users\Administrator\AppData\Local\Temp\VMBuilds\LoRa_Roll_Film\stm32_genericSTM32F103R\Release/core.a(HardwareTimer.cpp.o)
 .text._ZN13HardwareTimer15detachInterruptEi
                0x00000000        0x8 C:\Users\Administrator\AppData\Local\Temp\VMBuilds\LoRa_Roll_Film\stm32_genericSTM32F103R\Release/core.a(HardwareTimer.cpp.o)
 .text._ZN13HardwareTimer7refreshEv
                0x00000000       0x12 C:\Users\Administrator\AppData\Local\Temp\VMBuilds\LoRa_Roll_Film\stm32_genericSTM32F103R\Release/core.a(HardwareTimer.cpp.o)
 .text._ZN13HardwareTimer17setMasterModeTrGoEm
                0x00000000       0x14 C:\Users\Administrator\AppData\Local\Temp\VMBuilds\LoRa_Roll_Film\stm32_genericSTM32F103R\Release/core.a(HardwareTimer.cpp.o)
 .text._ZN13HardwareTimer12getDirectionEv
                0x00000000        0x6 C:\Users\Administrator\AppData\Local\Temp\VMBuilds\LoRa_Roll_Film\stm32_genericSTM32F103R\Release/core.a(HardwareTimer.cpp.o)
 .text._ZN13HardwareTimer15setEdgeCountingEm
                0x00000000        0x8 C:\Users\Administrator\AppData\Local\Temp\VMBuilds\LoRa_Roll_Film\stm32_genericSTM32F103R\Release/core.a(HardwareTimer.cpp.o)
 .text._ZN13HardwareTimer15getEdgeCountingEv
                0x00000000        0xa C:\Users\Administrator\AppData\Local\Temp\VMBuilds\LoRa_Roll_Film\stm32_genericSTM32F103R\Release/core.a(HardwareTimer.cpp.o)
 .text._ZN13HardwareTimer11setPolarityEv
                0x00000000        0x2 C:\Users\Administrator\AppData\Local\Temp\VMBuilds\LoRa_Roll_Film\stm32_genericSTM32F103R\Release/core.a(HardwareTimer.cpp.o)
 .text          0x00000000        0x0 C:\Users\Administrator\AppData\Local\Temp\VMBuilds\LoRa_Roll_Film\stm32_genericSTM32F103R\Release/core.a(main.cpp.o)
 .data          0x00000000        0x0 C:\Users\Administrator\AppData\Local\Temp\VMBuilds\LoRa_Roll_Film\stm32_genericSTM32F103R\Release/core.a(main.cpp.o)
 .bss           0x00000000        0x0 C:\Users\Administrator\AppData\Local\Temp\VMBuilds\LoRa_Roll_Film\stm32_genericSTM32F103R\Release/core.a(main.cpp.o)
 .text          0x00000000        0x0 C:\Users\Administrator\AppData\Local\Temp\VMBuilds\LoRa_Roll_Film\stm32_genericSTM32F103R\Release/core.a(Print.cpp.o)
 .data          0x00000000        0x0 C:\Users\Administrator\AppData\Local\Temp\VMBuilds\LoRa_Roll_Film\stm32_genericSTM32F103R\Release/core.a(Print.cpp.o)
 .bss           0x00000000        0x0 C:\Users\Administrator\AppData\Local\Temp\VMBuilds\LoRa_Roll_Film\stm32_genericSTM32F103R\Release/core.a(Print.cpp.o)
 .text._ZN5Print5printERK6String
                0x00000000       0x10 C:\Users\Administrator\AppData\Local\Temp\VMBuilds\LoRa_Roll_Film\stm32_genericSTM32F103R\Release/core.a(Print.cpp.o)
 .text._ZN5Print5printEPK19__FlashStringHelper
                0x00000000        0x4 C:\Users\Administrator\AppData\Local\Temp\VMBuilds\LoRa_Roll_Film\stm32_genericSTM32F103R\Release/core.a(Print.cpp.o)
 .text._ZN5Print5printERK9Printable
                0x00000000       0x10 C:\Users\Administrator\AppData\Local\Temp\VMBuilds\LoRa_Roll_Film\stm32_genericSTM32F103R\Release/core.a(Print.cpp.o)
 .text._ZN5Print7printlnERK6String
                0x00000000       0x14 C:\Users\Administrator\AppData\Local\Temp\VMBuilds\LoRa_Roll_Film\stm32_genericSTM32F103R\Release/core.a(Print.cpp.o)
 .text._ZN5Print7printlnEc
                0x00000000       0x14 C:\Users\Administrator\AppData\Local\Temp\VMBuilds\LoRa_Roll_Film\stm32_genericSTM32F103R\Release/core.a(Print.cpp.o)
 .text._ZN5Print7printlnEPK19__FlashStringHelper
                0x00000000       0x14 C:\Users\Administrator\AppData\Local\Temp\VMBuilds\LoRa_Roll_Film\stm32_genericSTM32F103R\Release/core.a(Print.cpp.o)
 .text._ZN5Print7printlnERK9Printable
                0x00000000       0x14 C:\Users\Administrator\AppData\Local\Temp\VMBuilds\LoRa_Roll_Film\stm32_genericSTM32F103R\Release/core.a(Print.cpp.o)
 .text._ZN5Print7printlnEii
                0x00000000       0x14 C:\Users\Administrator\AppData\Local\Temp\VMBuilds\LoRa_Roll_Film\stm32_genericSTM32F103R\Release/core.a(Print.cpp.o)
 .text._ZN5Print5printEli
                0x00000000       0x12 C:\Users\Administrator\AppData\Local\Temp\VMBuilds\LoRa_Roll_Film\stm32_genericSTM32F103R\Release/core.a(Print.cpp.o)
 .text._ZN5Print7printlnEli
                0x00000000       0x1c C:\Users\Administrator\AppData\Local\Temp\VMBuilds\LoRa_Roll_Film\stm32_genericSTM32F103R\Release/core.a(Print.cpp.o)
 .text._ZN5Print7printlnExi
                0x00000000       0x1a C:\Users\Administrator\AppData\Local\Temp\VMBuilds\LoRa_Roll_Film\stm32_genericSTM32F103R\Release/core.a(Print.cpp.o)
 .text._ZN5Print5printEmi
                0x00000000       0x12 C:\Users\Administrator\AppData\Local\Temp\VMBuilds\LoRa_Roll_Film\stm32_genericSTM32F103R\Release/core.a(Print.cpp.o)
 .text._ZN5Print7printlnEmi
                0x00000000       0x1c C:\Users\Administrator\AppData\Local\Temp\VMBuilds\LoRa_Roll_Film\stm32_genericSTM32F103R\Release/core.a(Print.cpp.o)
 .text._ZN5Print7printlnEyi
                0x00000000       0x1a C:\Users\Administrator\AppData\Local\Temp\VMBuilds\LoRa_Roll_Film\stm32_genericSTM32F103R\Release/core.a(Print.cpp.o)
 .text._ZN5Print5printEdi
                0x00000000        0xa C:\Users\Administrator\AppData\Local\Temp\VMBuilds\LoRa_Roll_Film\stm32_genericSTM32F103R\Release/core.a(Print.cpp.o)
 .rodata._ZTV5Print
                0x00000000       0x18 C:\Users\Administrator\AppData\Local\Temp\VMBuilds\LoRa_Roll_Film\stm32_genericSTM32F103R\Release/core.a(Print.cpp.o)
 .text          0x00000000        0x0 C:\Users\Administrator\AppData\Local\Temp\VMBuilds\LoRa_Roll_Film\stm32_genericSTM32F103R\Release/core.a(wirish_analog.cpp.o)
 .data          0x00000000        0x0 C:\Users\Administrator\AppData\Local\Temp\VMBuilds\LoRa_Roll_Film\stm32_genericSTM32F103R\Release/core.a(wirish_analog.cpp.o)
 .bss           0x00000000        0x0 C:\Users\Administrator\AppData\Local\Temp\VMBuilds\LoRa_Roll_Film\stm32_genericSTM32F103R\Release/core.a(wirish_analog.cpp.o)
 .text          0x00000000        0x0 C:\Users\Administrator\AppData\Local\Temp\VMBuilds\LoRa_Roll_Film\stm32_genericSTM32F103R\Release/core.a(wirish_digital.cpp.o)
 .data          0x00000000        0x0 C:\Users\Administrator\AppData\Local\Temp\VMBuilds\LoRa_Roll_Film\stm32_genericSTM32F103R\Release/core.a(wirish_digital.cpp.o)
 .bss           0x00000000        0x0 C:\Users\Administrator\AppData\Local\Temp\VMBuilds\LoRa_Roll_Film\stm32_genericSTM32F103R\Release/core.a(wirish_digital.cpp.o)
 .text          0x00000000        0x0 C:\Users\Administrator\AppData\Local\Temp\VMBuilds\LoRa_Roll_Film\stm32_genericSTM32F103R\Release/core.a(wirish_math.cpp.o)
 .data          0x00000000        0x0 C:\Users\Administrator\AppData\Local\Temp\VMBuilds\LoRa_Roll_Film\stm32_genericSTM32F103R\Release/core.a(wirish_math.cpp.o)
 .bss           0x00000000        0x0 C:\Users\Administrator\AppData\Local\Temp\VMBuilds\LoRa_Roll_Film\stm32_genericSTM32F103R\Release/core.a(wirish_math.cpp.o)
 .text._Z10randomSeedj
                0x00000000        0x8 C:\Users\Administrator\AppData\Local\Temp\VMBuilds\LoRa_Roll_Film\stm32_genericSTM32F103R\Release/core.a(wirish_math.cpp.o)
 .text._Z8makeWordt
                0x00000000        0x2 C:\Users\Administrator\AppData\Local\Temp\VMBuilds\LoRa_Roll_Film\stm32_genericSTM32F103R\Release/core.a(wirish_math.cpp.o)
 .text._Z8makeWordhh
                0x00000000        0x6 C:\Users\Administrator\AppData\Local\Temp\VMBuilds\LoRa_Roll_Film\stm32_genericSTM32F103R\Release/core.a(wirish_math.cpp.o)
 .text          0x00000000        0x0 C:\Users\Administrator\AppData\Local\Temp\VMBuilds\LoRa_Roll_Film\stm32_genericSTM32F103R\Release/core.a(wirish_time.cpp.o)
 .data          0x00000000        0x0 C:\Users\Administrator\AppData\Local\Temp\VMBuilds\LoRa_Roll_Film\stm32_genericSTM32F103R\Release/core.a(wirish_time.cpp.o)
 .bss           0x00000000        0x0 C:\Users\Administrator\AppData\Local\Temp\VMBuilds\LoRa_Roll_Film\stm32_genericSTM32F103R\Release/core.a(wirish_time.cpp.o)
 .text          0x00000000        0x0 C:\Users\Administrator\AppData\Local\Temp\VMBuilds\LoRa_Roll_Film\stm32_genericSTM32F103R\Release/core.a(wirish_digital_f1.cpp.o)
 .data          0x00000000        0x0 C:\Users\Administrator\AppData\Local\Temp\VMBuilds\LoRa_Roll_Film\stm32_genericSTM32F103R\Release/core.a(wirish_digital_f1.cpp.o)
 .bss           0x00000000        0x0 C:\Users\Administrator\AppData\Local\Temp\VMBuilds\LoRa_Roll_Film\stm32_genericSTM32F103R\Release/core.a(wirish_digital_f1.cpp.o)
 .text          0x00000000        0x0 C:\Users\Administrator\AppData\Local\Temp\VMBuilds\LoRa_Roll_Film\stm32_genericSTM32F103R\Release/core.a(hooks.c.o)
 .data          0x00000000        0x0 C:\Users\Administrator\AppData\Local\Temp\VMBuilds\LoRa_Roll_Film\stm32_genericSTM32F103R\Release/core.a(hooks.c.o)
 .bss           0x00000000        0x0 C:\Users\Administrator\AppData\Local\Temp\VMBuilds\LoRa_Roll_Film\stm32_genericSTM32F103R\Release/core.a(hooks.c.o)
 .text          0x00000000        0x0 C:\Users\Administrator\AppData\Local\Temp\VMBuilds\LoRa_Roll_Film\stm32_genericSTM32F103R\Release/core.a(exti.c.o)
 .data          0x00000000        0x0 C:\Users\Administrator\AppData\Local\Temp\VMBuilds\LoRa_Roll_Film\stm32_genericSTM32F103R\Release/core.a(exti.c.o)
 .bss           0x00000000        0x0 C:\Users\Administrator\AppData\Local\Temp\VMBuilds\LoRa_Roll_Film\stm32_genericSTM32F103R\Release/core.a(exti.c.o)
 .text          0x00000000        0x0 C:\Users\Administrator\AppData\Local\Temp\VMBuilds\LoRa_Roll_Film\stm32_genericSTM32F103R\Release/core.a(exti_f1.c.o)
 .data          0x00000000        0x0 C:\Users\Administrator\AppData\Local\Temp\VMBuilds\LoRa_Roll_Film\stm32_genericSTM32F103R\Release/core.a(exti_f1.c.o)
 .bss           0x00000000        0x0 C:\Users\Administrator\AppData\Local\Temp\VMBuilds\LoRa_Roll_Film\stm32_genericSTM32F103R\Release/core.a(exti_f1.c.o)
 .text          0x00000000        0x0 C:\Users\Administrator\AppData\Local\Temp\VMBuilds\LoRa_Roll_Film\stm32_genericSTM32F103R\Release/core.a(gpio.c.o)
 .data          0x00000000        0x0 C:\Users\Administrator\AppData\Local\Temp\VMBuilds\LoRa_Roll_Film\stm32_genericSTM32F103R\Release/core.a(gpio.c.o)
 .bss           0x00000000        0x0 C:\Users\Administrator\AppData\Local\Temp\VMBuilds\LoRa_Roll_Film\stm32_genericSTM32F103R\Release/core.a(gpio.c.o)
 .text          0x00000000        0x0 C:\Users\Administrator\AppData\Local\Temp\VMBuilds\LoRa_Roll_Film\stm32_genericSTM32F103R\Release/core.a(usart.c.o)
 .data          0x00000000        0x0 C:\Users\Administrator\AppData\Local\Temp\VMBuilds\LoRa_Roll_Film\stm32_genericSTM32F103R\Release/core.a(usart.c.o)
 .bss           0x00000000        0x0 C:\Users\Administrator\AppData\Local\Temp\VMBuilds\LoRa_Roll_Film\stm32_genericSTM32F103R\Release/core.a(usart.c.o)
 .text.usart_rx
                0x00000000       0x58 C:\Users\Administrator\AppData\Local\Temp\VMBuilds\LoRa_Roll_Film\stm32_genericSTM32F103R\Release/core.a(usart.c.o)
 .text          0x00000000        0x0 C:\Users\Administrator\AppData\Local\Temp\VMBuilds\LoRa_Roll_Film\stm32_genericSTM32F103R\Release/core.a(cxxabi-compat.cpp.o)
 .data          0x00000000        0x0 C:\Users\Administrator\AppData\Local\Temp\VMBuilds\LoRa_Roll_Film\stm32_genericSTM32F103R\Release/core.a(cxxabi-compat.cpp.o)
 .bss           0x00000000        0x0 C:\Users\Administrator\AppData\Local\Temp\VMBuilds\LoRa_Roll_Film\stm32_genericSTM32F103R\Release/core.a(cxxabi-compat.cpp.o)
 .text.__cxa_pure_virtual
                0x00000000        0x2 C:\Users\Administrator\AppData\Local\Temp\VMBuilds\LoRa_Roll_Film\stm32_genericSTM32F103R\Release/core.a(cxxabi-compat.cpp.o)
 .text          0x00000000        0x0 c:/users/administrator/appdata/local/arduino15/packages/arduino/tools/arm-none-eabi-gcc/4.8.3-2014q1/bin/../lib/gcc/arm-none-eabi/4.8.3/../../../../arm-none-eabi/lib/armv7-m\libm.a(lib_a-w_pow.o)
 .data          0x00000000        0x0 c:/users/administrator/appdata/local/arduino15/packages/arduino/tools/arm-none-eabi-gcc/4.8.3-2014q1/bin/../lib/gcc/arm-none-eabi/4.8.3/../../../../arm-none-eabi/lib/armv7-m\libm.a(lib_a-w_pow.o)
 .bss           0x00000000        0x0 c:/users/administrator/appdata/local/arduino15/packages/arduino/tools/arm-none-eabi-gcc/4.8.3-2014q1/bin/../lib/gcc/arm-none-eabi/4.8.3/../../../../arm-none-eabi/lib/armv7-m\libm.a(lib_a-w_pow.o)
 .text.pow      0x00000000      0x2f8 c:/users/administrator/appdata/local/arduino15/packages/arduino/tools/arm-none-eabi-gcc/4.8.3-2014q1/bin/../lib/gcc/arm-none-eabi/4.8.3/../../../../arm-none-eabi/lib/armv7-m\libm.a(lib_a-w_pow.o)
 .rodata.str1.4
                0x00000000        0x4 c:/users/administrator/appdata/local/arduino15/packages/arduino/tools/arm-none-eabi-gcc/4.8.3-2014q1/bin/../lib/gcc/arm-none-eabi/4.8.3/../../../../arm-none-eabi/lib/armv7-m\libm.a(lib_a-w_pow.o)
 .text          0x00000000        0x0 c:/users/administrator/appdata/local/arduino15/packages/arduino/tools/arm-none-eabi-gcc/4.8.3-2014q1/bin/../lib/gcc/arm-none-eabi/4.8.3/../../../../arm-none-eabi/lib/armv7-m\libm.a(lib_a-e_pow.o)
 .data          0x00000000        0x0 c:/users/administrator/appdata/local/arduino15/packages/arduino/tools/arm-none-eabi-gcc/4.8.3-2014q1/bin/../lib/gcc/arm-none-eabi/4.8.3/../../../../arm-none-eabi/lib/armv7-m\libm.a(lib_a-e_pow.o)
 .bss           0x00000000        0x0 c:/users/administrator/appdata/local/arduino15/packages/arduino/tools/arm-none-eabi-gcc/4.8.3-2014q1/bin/../lib/gcc/arm-none-eabi/4.8.3/../../../../arm-none-eabi/lib/armv7-m\libm.a(lib_a-e_pow.o)
 .text.__ieee754_pow
                0x00000000      0xab8 c:/users/administrator/appdata/local/arduino15/packages/arduino/tools/arm-none-eabi-gcc/4.8.3-2014q1/bin/../lib/gcc/arm-none-eabi/4.8.3/../../../../arm-none-eabi/lib/armv7-m\libm.a(lib_a-e_pow.o)
 .rodata.dp_h   0x00000000       0x10 c:/users/administrator/appdata/local/arduino15/packages/arduino/tools/arm-none-eabi-gcc/4.8.3-2014q1/bin/../lib/gcc/arm-none-eabi/4.8.3/../../../../arm-none-eabi/lib/armv7-m\libm.a(lib_a-e_pow.o)
 .rodata.dp_l   0x00000000       0x10 c:/users/administrator/appdata/local/arduino15/packages/arduino/tools/arm-none-eabi-gcc/4.8.3-2014q1/bin/../lib/gcc/arm-none-eabi/4.8.3/../../../../arm-none-eabi/lib/armv7-m\libm.a(lib_a-e_pow.o)
 .rodata.bp     0x00000000       0x10 c:/users/administrator/appdata/local/arduino15/packages/arduino/tools/arm-none-eabi-gcc/4.8.3-2014q1/bin/../lib/gcc/arm-none-eabi/4.8.3/../../../../arm-none-eabi/lib/armv7-m\libm.a(lib_a-e_pow.o)
 .rodata.str1.4
                0x00000000        0x4 c:/users/administrator/appdata/local/arduino15/packages/arduino/tools/arm-none-eabi-gcc/4.8.3-2014q1/bin/../lib/gcc/arm-none-eabi/4.8.3/../../../../arm-none-eabi/lib/armv7-m\libm.a(lib_a-e_pow.o)
 .text          0x00000000        0x0 c:/users/administrator/appdata/local/arduino15/packages/arduino/tools/arm-none-eabi-gcc/4.8.3-2014q1/bin/../lib/gcc/arm-none-eabi/4.8.3/../../../../arm-none-eabi/lib/armv7-m\libm.a(lib_a-e_sqrt.o)
 .data          0x00000000        0x0 c:/users/administrator/appdata/local/arduino15/packages/arduino/tools/arm-none-eabi-gcc/4.8.3-2014q1/bin/../lib/gcc/arm-none-eabi/4.8.3/../../../../arm-none-eabi/lib/armv7-m\libm.a(lib_a-e_sqrt.o)
 .bss           0x00000000        0x0 c:/users/administrator/appdata/local/arduino15/packages/arduino/tools/arm-none-eabi-gcc/4.8.3-2014q1/bin/../lib/gcc/arm-none-eabi/4.8.3/../../../../arm-none-eabi/lib/armv7-m\libm.a(lib_a-e_sqrt.o)
 .text.__ieee754_sqrt
                0x00000000      0x180 c:/users/administrator/appdata/local/arduino15/packages/arduino/tools/arm-none-eabi-gcc/4.8.3-2014q1/bin/../lib/gcc/arm-none-eabi/4.8.3/../../../../arm-none-eabi/lib/armv7-m\libm.a(lib_a-e_sqrt.o)
 .text          0x00000000        0x0 c:/users/administrator/appdata/local/arduino15/packages/arduino/tools/arm-none-eabi-gcc/4.8.3-2014q1/bin/../lib/gcc/arm-none-eabi/4.8.3/../../../../arm-none-eabi/lib/armv7-m\libm.a(lib_a-s_fabs.o)
 .data          0x00000000        0x0 c:/users/administrator/appdata/local/arduino15/packages/arduino/tools/arm-none-eabi-gcc/4.8.3-2014q1/bin/../lib/gcc/arm-none-eabi/4.8.3/../../../../arm-none-eabi/lib/armv7-m\libm.a(lib_a-s_fabs.o)
 .bss           0x00000000        0x0 c:/users/administrator/appdata/local/arduino15/packages/arduino/tools/arm-none-eabi-gcc/4.8.3-2014q1/bin/../lib/gcc/arm-none-eabi/4.8.3/../../../../arm-none-eabi/lib/armv7-m\libm.a(lib_a-s_fabs.o)
 .text.fabs     0x00000000        0x8 c:/users/administrator/appdata/local/arduino15/packages/arduino/tools/arm-none-eabi-gcc/4.8.3-2014q1/bin/../lib/gcc/arm-none-eabi/4.8.3/../../../../arm-none-eabi/lib/armv7-m\libm.a(lib_a-s_fabs.o)
 .text          0x00000000        0x0 c:/users/administrator/appdata/local/arduino15/packages/arduino/tools/arm-none-eabi-gcc/4.8.3-2014q1/bin/../lib/gcc/arm-none-eabi/4.8.3/../../../../arm-none-eabi/lib/armv7-m\libm.a(lib_a-s_finite.o)
 .data          0x00000000        0x0 c:/users/administrator/appdata/local/arduino15/packages/arduino/tools/arm-none-eabi-gcc/4.8.3-2014q1/bin/../lib/gcc/arm-none-eabi/4.8.3/../../../../arm-none-eabi/lib/armv7-m\libm.a(lib_a-s_finite.o)
 .bss           0x00000000        0x0 c:/users/administrator/appdata/local/arduino15/packages/arduino/tools/arm-none-eabi-gcc/4.8.3-2014q1/bin/../lib/gcc/arm-none-eabi/4.8.3/../../../../arm-none-eabi/lib/armv7-m\libm.a(lib_a-s_finite.o)
 .text.finite   0x00000000        0xc c:/users/administrator/appdata/local/arduino15/packages/arduino/tools/arm-none-eabi-gcc/4.8.3-2014q1/bin/../lib/gcc/arm-none-eabi/4.8.3/../../../../arm-none-eabi/lib/armv7-m\libm.a(lib_a-s_finite.o)
 .text          0x00000000        0x0 c:/users/administrator/appdata/local/arduino15/packages/arduino/tools/arm-none-eabi-gcc/4.8.3-2014q1/bin/../lib/gcc/arm-none-eabi/4.8.3/../../../../arm-none-eabi/lib/armv7-m\libm.a(lib_a-s_fpclassify.o)
 .data          0x00000000        0x0 c:/users/administrator/appdata/local/arduino15/packages/arduino/tools/arm-none-eabi-gcc/4.8.3-2014q1/bin/../lib/gcc/arm-none-eabi/4.8.3/../../../../arm-none-eabi/lib/armv7-m\libm.a(lib_a-s_fpclassify.o)
 .bss           0x00000000        0x0 c:/users/administrator/appdata/local/arduino15/packages/arduino/tools/arm-none-eabi-gcc/4.8.3-2014q1/bin/../lib/gcc/arm-none-eabi/4.8.3/../../../../arm-none-eabi/lib/armv7-m\libm.a(lib_a-s_fpclassify.o)
 .text.__fpclassifyd
                0x00000000       0x50 c:/users/administrator/appdata/local/arduino15/packages/arduino/tools/arm-none-eabi-gcc/4.8.3-2014q1/bin/../lib/gcc/arm-none-eabi/4.8.3/../../../../arm-none-eabi/lib/armv7-m\libm.a(lib_a-s_fpclassify.o)
 .text          0x00000000        0x0 c:/users/administrator/appdata/local/arduino15/packages/arduino/tools/arm-none-eabi-gcc/4.8.3-2014q1/bin/../lib/gcc/arm-none-eabi/4.8.3/../../../../arm-none-eabi/lib/armv7-m\libm.a(lib_a-s_lib_ver.o)
 .data          0x00000000        0x0 c:/users/administrator/appdata/local/arduino15/packages/arduino/tools/arm-none-eabi-gcc/4.8.3-2014q1/bin/../lib/gcc/arm-none-eabi/4.8.3/../../../../arm-none-eabi/lib/armv7-m\libm.a(lib_a-s_lib_ver.o)
 .bss           0x00000000        0x0 c:/users/administrator/appdata/local/arduino15/packages/arduino/tools/arm-none-eabi-gcc/4.8.3-2014q1/bin/../lib/gcc/arm-none-eabi/4.8.3/../../../../arm-none-eabi/lib/armv7-m\libm.a(lib_a-s_lib_ver.o)
 .data.__fdlib_version
                0x00000000        0x1 c:/users/administrator/appdata/local/arduino15/packages/arduino/tools/arm-none-eabi-gcc/4.8.3-2014q1/bin/../lib/gcc/arm-none-eabi/4.8.3/../../../../arm-none-eabi/lib/armv7-m\libm.a(lib_a-s_lib_ver.o)
 .text          0x00000000        0x0 c:/users/administrator/appdata/local/arduino15/packages/arduino/tools/arm-none-eabi-gcc/4.8.3-2014q1/bin/../lib/gcc/arm-none-eabi/4.8.3/../../../../arm-none-eabi/lib/armv7-m\libm.a(lib_a-s_matherr.o)
 .data          0x00000000        0x0 c:/users/administrator/appdata/local/arduino15/packages/arduino/tools/arm-none-eabi-gcc/4.8.3-2014q1/bin/../lib/gcc/arm-none-eabi/4.8.3/../../../../arm-none-eabi/lib/armv7-m\libm.a(lib_a-s_matherr.o)
 .bss           0x00000000        0x0 c:/users/administrator/appdata/local/arduino15/packages/arduino/tools/arm-none-eabi-gcc/4.8.3-2014q1/bin/../lib/gcc/arm-none-eabi/4.8.3/../../../../arm-none-eabi/lib/armv7-m\libm.a(lib_a-s_matherr.o)
 .text.matherr  0x00000000        0x4 c:/users/administrator/appdata/local/arduino15/packages/arduino/tools/arm-none-eabi-gcc/4.8.3-2014q1/bin/../lib/gcc/arm-none-eabi/4.8.3/../../../../arm-none-eabi/lib/armv7-m\libm.a(lib_a-s_matherr.o)
 .text          0x00000000        0x0 c:/users/administrator/appdata/local/arduino15/packages/arduino/tools/arm-none-eabi-gcc/4.8.3-2014q1/bin/../lib/gcc/arm-none-eabi/4.8.3/../../../../arm-none-eabi/lib/armv7-m\libm.a(lib_a-s_nan.o)
 .data          0x00000000        0x0 c:/users/administrator/appdata/local/arduino15/packages/arduino/tools/arm-none-eabi-gcc/4.8.3-2014q1/bin/../lib/gcc/arm-none-eabi/4.8.3/../../../../arm-none-eabi/lib/armv7-m\libm.a(lib_a-s_nan.o)
 .bss           0x00000000        0x0 c:/users/administrator/appdata/local/arduino15/packages/arduino/tools/arm-none-eabi-gcc/4.8.3-2014q1/bin/../lib/gcc/arm-none-eabi/4.8.3/../../../../arm-none-eabi/lib/armv7-m\libm.a(lib_a-s_nan.o)
 .text.nan      0x00000000        0xc c:/users/administrator/appdata/local/arduino15/packages/arduino/tools/arm-none-eabi-gcc/4.8.3-2014q1/bin/../lib/gcc/arm-none-eabi/4.8.3/../../../../arm-none-eabi/lib/armv7-m\libm.a(lib_a-s_nan.o)
 .text          0x00000000        0x0 c:/users/administrator/appdata/local/arduino15/packages/arduino/tools/arm-none-eabi-gcc/4.8.3-2014q1/bin/../lib/gcc/arm-none-eabi/4.8.3/../../../../arm-none-eabi/lib/armv7-m\libm.a(lib_a-s_rint.o)
 .data          0x00000000        0x0 c:/users/administrator/appdata/local/arduino15/packages/arduino/tools/arm-none-eabi-gcc/4.8.3-2014q1/bin/../lib/gcc/arm-none-eabi/4.8.3/../../../../arm-none-eabi/lib/armv7-m\libm.a(lib_a-s_rint.o)
 .bss           0x00000000        0x0 c:/users/administrator/appdata/local/arduino15/packages/arduino/tools/arm-none-eabi-gcc/4.8.3-2014q1/bin/../lib/gcc/arm-none-eabi/4.8.3/../../../../arm-none-eabi/lib/armv7-m\libm.a(lib_a-s_rint.o)
 .text.rint     0x00000000      0x118 c:/users/administrator/appdata/local/arduino15/packages/arduino/tools/arm-none-eabi-gcc/4.8.3-2014q1/bin/../lib/gcc/arm-none-eabi/4.8.3/../../../../arm-none-eabi/lib/armv7-m\libm.a(lib_a-s_rint.o)
 .rodata.TWO52  0x00000000       0x10 c:/users/administrator/appdata/local/arduino15/packages/arduino/tools/arm-none-eabi-gcc/4.8.3-2014q1/bin/../lib/gcc/arm-none-eabi/4.8.3/../../../../arm-none-eabi/lib/armv7-m\libm.a(lib_a-s_rint.o)
 .text          0x00000000        0x0 c:/users/administrator/appdata/local/arduino15/packages/arduino/tools/arm-none-eabi-gcc/4.8.3-2014q1/bin/../lib/gcc/arm-none-eabi/4.8.3/../../../../arm-none-eabi/lib/armv7-m\libm.a(lib_a-s_scalbn.o)
 .data          0x00000000        0x0 c:/users/administrator/appdata/local/arduino15/packages/arduino/tools/arm-none-eabi-gcc/4.8.3-2014q1/bin/../lib/gcc/arm-none-eabi/4.8.3/../../../../arm-none-eabi/lib/armv7-m\libm.a(lib_a-s_scalbn.o)
 .bss           0x00000000        0x0 c:/users/administrator/appdata/local/arduino15/packages/arduino/tools/arm-none-eabi-gcc/4.8.3-2014q1/bin/../lib/gcc/arm-none-eabi/4.8.3/../../../../arm-none-eabi/lib/armv7-m\libm.a(lib_a-s_scalbn.o)
 .text.scalbn   0x00000000      0x100 c:/users/administrator/appdata/local/arduino15/packages/arduino/tools/arm-none-eabi-gcc/4.8.3-2014q1/bin/../lib/gcc/arm-none-eabi/4.8.3/../../../../arm-none-eabi/lib/armv7-m\libm.a(lib_a-s_scalbn.o)
 .text          0x00000000        0x0 c:/users/administrator/appdata/local/arduino15/packages/arduino/tools/arm-none-eabi-gcc/4.8.3-2014q1/bin/../lib/gcc/arm-none-eabi/4.8.3/../../../../arm-none-eabi/lib/armv7-m\libm.a(lib_a-s_copysign.o)
 .data          0x00000000        0x0 c:/users/administrator/appdata/local/arduino15/packages/arduino/tools/arm-none-eabi-gcc/4.8.3-2014q1/bin/../lib/gcc/arm-none-eabi/4.8.3/../../../../arm-none-eabi/lib/armv7-m\libm.a(lib_a-s_copysign.o)
 .bss           0x00000000        0x0 c:/users/administrator/appdata/local/arduino15/packages/arduino/tools/arm-none-eabi-gcc/4.8.3-2014q1/bin/../lib/gcc/arm-none-eabi/4.8.3/../../../../arm-none-eabi/lib/armv7-m\libm.a(lib_a-s_copysign.o)
 .text.copysign
                0x00000000       0x14 c:/users/administrator/appdata/local/arduino15/packages/arduino/tools/arm-none-eabi-gcc/4.8.3-2014q1/bin/../lib/gcc/arm-none-eabi/4.8.3/../../../../arm-none-eabi/lib/armv7-m\libm.a(lib_a-s_copysign.o)
 .data          0x00000000        0x0 c:/users/administrator/appdata/local/arduino15/packages/arduino/tools/arm-none-eabi-gcc/4.8.3-2014q1/bin/../lib/gcc/arm-none-eabi/4.8.3/armv7-m\libgcc.a(_arm_addsubdf3.o)
 .bss           0x00000000        0x0 c:/users/administrator/appdata/local/arduino15/packages/arduino/tools/arm-none-eabi-gcc/4.8.3-2014q1/bin/../lib/gcc/arm-none-eabi/4.8.3/armv7-m\libgcc.a(_arm_addsubdf3.o)
 .data          0x00000000        0x0 c:/users/administrator/appdata/local/arduino15/packages/arduino/tools/arm-none-eabi-gcc/4.8.3-2014q1/bin/../lib/gcc/arm-none-eabi/4.8.3/armv7-m\libgcc.a(_arm_muldivdf3.o)
 .bss           0x00000000        0x0 c:/users/administrator/appdata/local/arduino15/packages/arduino/tools/arm-none-eabi-gcc/4.8.3-2014q1/bin/../lib/gcc/arm-none-eabi/4.8.3/armv7-m\libgcc.a(_arm_muldivdf3.o)
 .data          0x00000000        0x0 c:/users/administrator/appdata/local/arduino15/packages/arduino/tools/arm-none-eabi-gcc/4.8.3-2014q1/bin/../lib/gcc/arm-none-eabi/4.8.3/armv7-m\libgcc.a(_arm_cmpdf2.o)
 .bss           0x00000000        0x0 c:/users/administrator/appdata/local/arduino15/packages/arduino/tools/arm-none-eabi-gcc/4.8.3-2014q1/bin/../lib/gcc/arm-none-eabi/4.8.3/armv7-m\libgcc.a(_arm_cmpdf2.o)
 .data          0x00000000        0x0 c:/users/administrator/appdata/local/arduino15/packages/arduino/tools/arm-none-eabi-gcc/4.8.3-2014q1/bin/../lib/gcc/arm-none-eabi/4.8.3/armv7-m\libgcc.a(_arm_fixdfsi.o)
 .bss           0x00000000        0x0 c:/users/administrator/appdata/local/arduino15/packages/arduino/tools/arm-none-eabi-gcc/4.8.3-2014q1/bin/../lib/gcc/arm-none-eabi/4.8.3/armv7-m\libgcc.a(_arm_fixdfsi.o)
 .data          0x00000000        0x0 c:/users/administrator/appdata/local/arduino15/packages/arduino/tools/arm-none-eabi-gcc/4.8.3-2014q1/bin/../lib/gcc/arm-none-eabi/4.8.3/armv7-m\libgcc.a(_arm_fixunsdfsi.o)
 .bss           0x00000000        0x0 c:/users/administrator/appdata/local/arduino15/packages/arduino/tools/arm-none-eabi-gcc/4.8.3-2014q1/bin/../lib/gcc/arm-none-eabi/4.8.3/armv7-m\libgcc.a(_arm_fixunsdfsi.o)
 .data          0x00000000        0x0 c:/users/administrator/appdata/local/arduino15/packages/arduino/tools/arm-none-eabi-gcc/4.8.3-2014q1/bin/../lib/gcc/arm-none-eabi/4.8.3/armv7-m\libgcc.a(_arm_truncdfsf2.o)
 .bss           0x00000000        0x0 c:/users/administrator/appdata/local/arduino15/packages/arduino/tools/arm-none-eabi-gcc/4.8.3-2014q1/bin/../lib/gcc/arm-none-eabi/4.8.3/armv7-m\libgcc.a(_arm_truncdfsf2.o)
 .data          0x00000000        0x0 c:/users/administrator/appdata/local/arduino15/packages/arduino/tools/arm-none-eabi-gcc/4.8.3-2014q1/bin/../lib/gcc/arm-none-eabi/4.8.3/armv7-m\libgcc.a(_arm_addsubsf3.o)
 .bss           0x00000000        0x0 c:/users/administrator/appdata/local/arduino15/packages/arduino/tools/arm-none-eabi-gcc/4.8.3-2014q1/bin/../lib/gcc/arm-none-eabi/4.8.3/armv7-m\libgcc.a(_arm_addsubsf3.o)
 .data          0x00000000        0x0 c:/users/administrator/appdata/local/arduino15/packages/arduino/tools/arm-none-eabi-gcc/4.8.3-2014q1/bin/../lib/gcc/arm-none-eabi/4.8.3/armv7-m\libgcc.a(_arm_muldivsf3.o)
 .bss           0x00000000        0x0 c:/users/administrator/appdata/local/arduino15/packages/arduino/tools/arm-none-eabi-gcc/4.8.3-2014q1/bin/../lib/gcc/arm-none-eabi/4.8.3/armv7-m\libgcc.a(_arm_muldivsf3.o)
 .data          0x00000000        0x0 c:/users/administrator/appdata/local/arduino15/packages/arduino/tools/arm-none-eabi-gcc/4.8.3-2014q1/bin/../lib/gcc/arm-none-eabi/4.8.3/armv7-m\libgcc.a(_arm_cmpsf2.o)
 .bss           0x00000000        0x0 c:/users/administrator/appdata/local/arduino15/packages/arduino/tools/arm-none-eabi-gcc/4.8.3-2014q1/bin/../lib/gcc/arm-none-eabi/4.8.3/armv7-m\libgcc.a(_arm_cmpsf2.o)
 .data          0x00000000        0x0 c:/users/administrator/appdata/local/arduino15/packages/arduino/tools/arm-none-eabi-gcc/4.8.3-2014q1/bin/../lib/gcc/arm-none-eabi/4.8.3/armv7-m\libgcc.a(_arm_fixunssfsi.o)
 .bss           0x00000000        0x0 c:/users/administrator/appdata/local/arduino15/packages/arduino/tools/arm-none-eabi-gcc/4.8.3-2014q1/bin/../lib/gcc/arm-none-eabi/4.8.3/armv7-m\libgcc.a(_arm_fixunssfsi.o)
 .data          0x00000000        0x0 c:/users/administrator/appdata/local/arduino15/packages/arduino/tools/arm-none-eabi-gcc/4.8.3-2014q1/bin/../lib/gcc/arm-none-eabi/4.8.3/armv7-m\libgcc.a(_aeabi_uldivmod.o)
 .bss           0x00000000        0x0 c:/users/administrator/appdata/local/arduino15/packages/arduino/tools/arm-none-eabi-gcc/4.8.3-2014q1/bin/../lib/gcc/arm-none-eabi/4.8.3/armv7-m\libgcc.a(_aeabi_uldivmod.o)
 .data          0x00000000        0x0 c:/users/administrator/appdata/local/arduino15/packages/arduino/tools/arm-none-eabi-gcc/4.8.3-2014q1/bin/../lib/gcc/arm-none-eabi/4.8.3/armv7-m\libgcc.a(_fixdfdi.o)
 .bss           0x00000000        0x0 c:/users/administrator/appdata/local/arduino15/packages/arduino/tools/arm-none-eabi-gcc/4.8.3-2014q1/bin/../lib/gcc/arm-none-eabi/4.8.3/armv7-m\libgcc.a(_fixdfdi.o)
 .data          0x00000000        0x0 c:/users/administrator/appdata/local/arduino15/packages/arduino/tools/arm-none-eabi-gcc/4.8.3-2014q1/bin/../lib/gcc/arm-none-eabi/4.8.3/armv7-m\libgcc.a(_fixunsdfdi.o)
 .bss           0x00000000        0x0 c:/users/administrator/appdata/local/arduino15/packages/arduino/tools/arm-none-eabi-gcc/4.8.3-2014q1/bin/../lib/gcc/arm-none-eabi/4.8.3/armv7-m\libgcc.a(_fixunsdfdi.o)
 .data          0x00000000        0x0 c:/users/administrator/appdata/local/arduino15/packages/arduino/tools/arm-none-eabi-gcc/4.8.3-2014q1/bin/../lib/gcc/arm-none-eabi/4.8.3/armv7-m\libgcc.a(bpabi.o)
 .bss           0x00000000        0x0 c:/users/administrator/appdata/local/arduino15/packages/arduino/tools/arm-none-eabi-gcc/4.8.3-2014q1/bin/../lib/gcc/arm-none-eabi/4.8.3/armv7-m\libgcc.a(bpabi.o)
 .data          0x00000000        0x0 c:/users/administrator/appdata/local/arduino15/packages/arduino/tools/arm-none-eabi-gcc/4.8.3-2014q1/bin/../lib/gcc/arm-none-eabi/4.8.3/armv7-m\libgcc.a(_dvmd_tls.o)
 .bss           0x00000000        0x0 c:/users/administrator/appdata/local/arduino15/packages/arduino/tools/arm-none-eabi-gcc/4.8.3-2014q1/bin/../lib/gcc/arm-none-eabi/4.8.3/armv7-m\libgcc.a(_dvmd_tls.o)
 .data          0x00000000        0x0 c:/users/administrator/appdata/local/arduino15/packages/arduino/tools/arm-none-eabi-gcc/4.8.3-2014q1/bin/../lib/gcc/arm-none-eabi/4.8.3/armv7-m\libgcc.a(_divdi3.o)
 .bss           0x00000000        0x0 c:/users/administrator/appdata/local/arduino15/packages/arduino/tools/arm-none-eabi-gcc/4.8.3-2014q1/bin/../lib/gcc/arm-none-eabi/4.8.3/armv7-m\libgcc.a(_divdi3.o)
 .ARM.extab     0x00000000        0x0 c:/users/administrator/appdata/local/arduino15/packages/arduino/tools/arm-none-eabi-gcc/4.8.3-2014q1/bin/../lib/gcc/arm-none-eabi/4.8.3/armv7-m\libgcc.a(_divdi3.o)
 .data          0x00000000        0x0 c:/users/administrator/appdata/local/arduino15/packages/arduino/tools/arm-none-eabi-gcc/4.8.3-2014q1/bin/../lib/gcc/arm-none-eabi/4.8.3/armv7-m\libgcc.a(_udivdi3.o)
 .bss           0x00000000        0x0 c:/users/administrator/appdata/local/arduino15/packages/arduino/tools/arm-none-eabi-gcc/4.8.3-2014q1/bin/../lib/gcc/arm-none-eabi/4.8.3/armv7-m\libgcc.a(_udivdi3.o)
 .ARM.extab     0x00000000        0x0 c:/users/administrator/appdata/local/arduino15/packages/arduino/tools/arm-none-eabi-gcc/4.8.3-2014q1/bin/../lib/gcc/arm-none-eabi/4.8.3/armv7-m\libgcc.a(_udivdi3.o)
 .text          0x00000000        0x0 c:/users/administrator/appdata/local/arduino15/packages/arduino/tools/arm-none-eabi-gcc/4.8.3-2014q1/bin/../lib/gcc/arm-none-eabi/4.8.3/../../../../arm-none-eabi/lib/armv7-m\libc.a(lib_a-errno.o)
 .data          0x00000000        0x0 c:/users/administrator/appdata/local/arduino15/packages/arduino/tools/arm-none-eabi-gcc/4.8.3-2014q1/bin/../lib/gcc/arm-none-eabi/4.8.3/../../../../arm-none-eabi/lib/armv7-m\libc.a(lib_a-errno.o)
 .bss           0x00000000        0x0 c:/users/administrator/appdata/local/arduino15/packages/arduino/tools/arm-none-eabi-gcc/4.8.3-2014q1/bin/../lib/gcc/arm-none-eabi/4.8.3/../../../../arm-none-eabi/lib/armv7-m\libc.a(lib_a-errno.o)
 .text.__errno  0x00000000        0xc c:/users/administrator/appdata/local/arduino15/packages/arduino/tools/arm-none-eabi-gcc/4.8.3-2014q1/bin/../lib/gcc/arm-none-eabi/4.8.3/../../../../arm-none-eabi/lib/armv7-m\libc.a(lib_a-errno.o)
 .text          0x00000000        0x0 c:/users/administrator/appdata/local/arduino15/packages/arduino/tools/arm-none-eabi-gcc/4.8.3-2014q1/bin/../lib/gcc/arm-none-eabi/4.8.3/../../../../arm-none-eabi/lib/armv7-m\libc.a(lib_a-exit.o)
 .data          0x00000000        0x0 c:/users/administrator/appdata/local/arduino15/packages/arduino/tools/arm-none-eabi-gcc/4.8.3-2014q1/bin/../lib/gcc/arm-none-eabi/4.8.3/../../../../arm-none-eabi/lib/armv7-m\libc.a(lib_a-exit.o)
 .bss           0x00000000        0x0 c:/users/administrator/appdata/local/arduino15/packages/arduino/tools/arm-none-eabi-gcc/4.8.3-2014q1/bin/../lib/gcc/arm-none-eabi/4.8.3/../../../../arm-none-eabi/lib/armv7-m\libc.a(lib_a-exit.o)
 .text          0x00000000        0x0 c:/users/administrator/appdata/local/arduino15/packages/arduino/tools/arm-none-eabi-gcc/4.8.3-2014q1/bin/../lib/gcc/arm-none-eabi/4.8.3/../../../../arm-none-eabi/lib/armv7-m\libc.a(lib_a-gmtime.o)
 .data          0x00000000        0x0 c:/users/administrator/appdata/local/arduino15/packages/arduino/tools/arm-none-eabi-gcc/4.8.3-2014q1/bin/../lib/gcc/arm-none-eabi/4.8.3/../../../../arm-none-eabi/lib/armv7-m\libc.a(lib_a-gmtime.o)
 .bss           0x00000000        0x0 c:/users/administrator/appdata/local/arduino15/packages/arduino/tools/arm-none-eabi-gcc/4.8.3-2014q1/bin/../lib/gcc/arm-none-eabi/4.8.3/../../../../arm-none-eabi/lib/armv7-m\libc.a(lib_a-gmtime.o)
 .text.gmtime   0x00000000       0x10 c:/users/administrator/appdata/local/arduino15/packages/arduino/tools/arm-none-eabi-gcc/4.8.3-2014q1/bin/../lib/gcc/arm-none-eabi/4.8.3/../../../../arm-none-eabi/lib/armv7-m\libc.a(lib_a-gmtime.o)
 .text          0x00000000        0x0 c:/users/administrator/appdata/local/arduino15/packages/arduino/tools/arm-none-eabi-gcc/4.8.3-2014q1/bin/../lib/gcc/arm-none-eabi/4.8.3/../../../../arm-none-eabi/lib/armv7-m\libc.a(lib_a-gmtime_r.o)
 .data          0x00000000        0x0 c:/users/administrator/appdata/local/arduino15/packages/arduino/tools/arm-none-eabi-gcc/4.8.3-2014q1/bin/../lib/gcc/arm-none-eabi/4.8.3/../../../../arm-none-eabi/lib/armv7-m\libc.a(lib_a-gmtime_r.o)
 .bss           0x00000000        0x0 c:/users/administrator/appdata/local/arduino15/packages/arduino/tools/arm-none-eabi-gcc/4.8.3-2014q1/bin/../lib/gcc/arm-none-eabi/4.8.3/../../../../arm-none-eabi/lib/armv7-m\libc.a(lib_a-gmtime_r.o)
 .text.gmtime_r
                0x00000000        0x8 c:/users/administrator/appdata/local/arduino15/packages/arduino/tools/arm-none-eabi-gcc/4.8.3-2014q1/bin/../lib/gcc/arm-none-eabi/4.8.3/../../../../arm-none-eabi/lib/armv7-m\libc.a(lib_a-gmtime_r.o)
 .text          0x00000000        0x0 c:/users/administrator/appdata/local/arduino15/packages/arduino/tools/arm-none-eabi-gcc/4.8.3-2014q1/bin/../lib/gcc/arm-none-eabi/4.8.3/../../../../arm-none-eabi/lib/armv7-m\libc.a(lib_a-impure.o)
 .data          0x00000000        0x0 c:/users/administrator/appdata/local/arduino15/packages/arduino/tools/arm-none-eabi-gcc/4.8.3-2014q1/bin/../lib/gcc/arm-none-eabi/4.8.3/../../../../arm-none-eabi/lib/armv7-m\libc.a(lib_a-impure.o)
 .bss           0x00000000        0x0 c:/users/administrator/appdata/local/arduino15/packages/arduino/tools/arm-none-eabi-gcc/4.8.3-2014q1/bin/../lib/gcc/arm-none-eabi/4.8.3/../../../../arm-none-eabi/lib/armv7-m\libc.a(lib_a-impure.o)
 .text          0x00000000        0x0 c:/users/administrator/appdata/local/arduino15/packages/arduino/tools/arm-none-eabi-gcc/4.8.3-2014q1/bin/../lib/gcc/arm-none-eabi/4.8.3/../../../../arm-none-eabi/lib/armv7-m\libc.a(lib_a-init.o)
 .data          0x00000000        0x0 c:/users/administrator/appdata/local/arduino15/packages/arduino/tools/arm-none-eabi-gcc/4.8.3-2014q1/bin/../lib/gcc/arm-none-eabi/4.8.3/../../../../arm-none-eabi/lib/armv7-m\libc.a(lib_a-init.o)
 .bss           0x00000000        0x0 c:/users/administrator/appdata/local/arduino15/packages/arduino/tools/arm-none-eabi-gcc/4.8.3-2014q1/bin/../lib/gcc/arm-none-eabi/4.8.3/../../../../arm-none-eabi/lib/armv7-m\libc.a(lib_a-init.o)
 .text          0x00000000        0x0 c:/users/administrator/appdata/local/arduino15/packages/arduino/tools/arm-none-eabi-gcc/4.8.3-2014q1/bin/../lib/gcc/arm-none-eabi/4.8.3/../../../../arm-none-eabi/lib/armv7-m\libc.a(lib_a-memset.o)
 .data          0x00000000        0x0 c:/users/administrator/appdata/local/arduino15/packages/arduino/tools/arm-none-eabi-gcc/4.8.3-2014q1/bin/../lib/gcc/arm-none-eabi/4.8.3/../../../../arm-none-eabi/lib/armv7-m\libc.a(lib_a-memset.o)
 .bss           0x00000000        0x0 c:/users/administrator/appdata/local/arduino15/packages/arduino/tools/arm-none-eabi-gcc/4.8.3-2014q1/bin/../lib/gcc/arm-none-eabi/4.8.3/../../../../arm-none-eabi/lib/armv7-m\libc.a(lib_a-memset.o)
 .text          0x00000000        0x0 c:/users/administrator/appdata/local/arduino15/packages/arduino/tools/arm-none-eabi-gcc/4.8.3-2014q1/bin/../lib/gcc/arm-none-eabi/4.8.3/../../../../arm-none-eabi/lib/armv7-m\libc.a(lib_a-mktime.o)
 .data          0x00000000        0x0 c:/users/administrator/appdata/local/arduino15/packages/arduino/tools/arm-none-eabi-gcc/4.8.3-2014q1/bin/../lib/gcc/arm-none-eabi/4.8.3/../../../../arm-none-eabi/lib/armv7-m\libc.a(lib_a-mktime.o)
 .bss           0x00000000        0x0 c:/users/administrator/appdata/local/arduino15/packages/arduino/tools/arm-none-eabi-gcc/4.8.3-2014q1/bin/../lib/gcc/arm-none-eabi/4.8.3/../../../../arm-none-eabi/lib/armv7-m\libc.a(lib_a-mktime.o)
 .text.validate_structure
                0x00000000      0x220 c:/users/administrator/appdata/local/arduino15/packages/arduino/tools/arm-none-eabi-gcc/4.8.3-2014q1/bin/../lib/gcc/arm-none-eabi/4.8.3/../../../../arm-none-eabi/lib/armv7-m\libc.a(lib_a-mktime.o)
 .text.mktime   0x00000000      0x35c c:/users/administrator/appdata/local/arduino15/packages/arduino/tools/arm-none-eabi-gcc/4.8.3-2014q1/bin/../lib/gcc/arm-none-eabi/4.8.3/../../../../arm-none-eabi/lib/armv7-m\libc.a(lib_a-mktime.o)
 .rodata._DAYS_BEFORE_MONTH
                0x00000000       0x30 c:/users/administrator/appdata/local/arduino15/packages/arduino/tools/arm-none-eabi-gcc/4.8.3-2014q1/bin/../lib/gcc/arm-none-eabi/4.8.3/../../../../arm-none-eabi/lib/armv7-m\libc.a(lib_a-mktime.o)
 .rodata.DAYS_IN_MONTH
                0x00000000       0x30 c:/users/administrator/appdata/local/arduino15/packages/arduino/tools/arm-none-eabi-gcc/4.8.3-2014q1/bin/../lib/gcc/arm-none-eabi/4.8.3/../../../../arm-none-eabi/lib/armv7-m\libc.a(lib_a-mktime.o)
 .text          0x00000000        0x0 c:/users/administrator/appdata/local/arduino15/packages/arduino/tools/arm-none-eabi-gcc/4.8.3-2014q1/bin/../lib/gcc/arm-none-eabi/4.8.3/../../../../arm-none-eabi/lib/armv7-m\libc.a(lib_a-mktm_r.o)
 .data          0x00000000        0x0 c:/users/administrator/appdata/local/arduino15/packages/arduino/tools/arm-none-eabi-gcc/4.8.3-2014q1/bin/../lib/gcc/arm-none-eabi/4.8.3/../../../../arm-none-eabi/lib/armv7-m\libc.a(lib_a-mktm_r.o)
 .bss           0x00000000        0x0 c:/users/administrator/appdata/local/arduino15/packages/arduino/tools/arm-none-eabi-gcc/4.8.3-2014q1/bin/../lib/gcc/arm-none-eabi/4.8.3/../../../../arm-none-eabi/lib/armv7-m\libc.a(lib_a-mktm_r.o)
 .text.__tzcalc_limits
                0x00000000      0x198 c:/users/administrator/appdata/local/arduino15/packages/arduino/tools/arm-none-eabi-gcc/4.8.3-2014q1/bin/../lib/gcc/arm-none-eabi/4.8.3/../../../../arm-none-eabi/lib/armv7-m\libc.a(lib_a-mktm_r.o)
 .text._mktm_r  0x00000000      0x368 c:/users/administrator/appdata/local/arduino15/packages/arduino/tools/arm-none-eabi-gcc/4.8.3-2014q1/bin/../lib/gcc/arm-none-eabi/4.8.3/../../../../arm-none-eabi/lib/armv7-m\libc.a(lib_a-mktm_r.o)
 .rodata.mon_lengths
                0x00000000       0x60 c:/users/administrator/appdata/local/arduino15/packages/arduino/tools/arm-none-eabi-gcc/4.8.3-2014q1/bin/../lib/gcc/arm-none-eabi/4.8.3/../../../../arm-none-eabi/lib/armv7-m\libc.a(lib_a-mktm_r.o)
 .rodata.year_lengths
                0x00000000        0x8 c:/users/administrator/appdata/local/arduino15/packages/arduino/tools/arm-none-eabi-gcc/4.8.3-2014q1/bin/../lib/gcc/arm-none-eabi/4.8.3/../../../../arm-none-eabi/lib/armv7-m\libc.a(lib_a-mktm_r.o)
 .text          0x00000000        0x0 c:/users/administrator/appdata/local/arduino15/packages/arduino/tools/arm-none-eabi-gcc/4.8.3-2014q1/bin/../lib/gcc/arm-none-eabi/4.8.3/../../../../arm-none-eabi/lib/armv7-m\libc.a(lib_a-rand.o)
 .data          0x00000000        0x0 c:/users/administrator/appdata/local/arduino15/packages/arduino/tools/arm-none-eabi-gcc/4.8.3-2014q1/bin/../lib/gcc/arm-none-eabi/4.8.3/../../../../arm-none-eabi/lib/armv7-m\libc.a(lib_a-rand.o)
 .bss           0x00000000        0x0 c:/users/administrator/appdata/local/arduino15/packages/arduino/tools/arm-none-eabi-gcc/4.8.3-2014q1/bin/../lib/gcc/arm-none-eabi/4.8.3/../../../../arm-none-eabi/lib/armv7-m\libc.a(lib_a-rand.o)
 .text.srand    0x00000000       0x10 c:/users/administrator/appdata/local/arduino15/packages/arduino/tools/arm-none-eabi-gcc/4.8.3-2014q1/bin/../lib/gcc/arm-none-eabi/4.8.3/../../../../arm-none-eabi/lib/armv7-m\libc.a(lib_a-rand.o)
 .text          0x00000000        0x0 c:/users/administrator/appdata/local/arduino15/packages/arduino/tools/arm-none-eabi-gcc/4.8.3-2014q1/bin/../lib/gcc/arm-none-eabi/4.8.3/../../../../arm-none-eabi/lib/armv7-m\libc.a(lib_a-strlen.o)
 .data          0x00000000        0x0 c:/users/administrator/appdata/local/arduino15/packages/arduino/tools/arm-none-eabi-gcc/4.8.3-2014q1/bin/../lib/gcc/arm-none-eabi/4.8.3/../../../../arm-none-eabi/lib/armv7-m\libc.a(lib_a-strlen.o)
 .bss           0x00000000        0x0 c:/users/administrator/appdata/local/arduino15/packages/arduino/tools/arm-none-eabi-gcc/4.8.3-2014q1/bin/../lib/gcc/arm-none-eabi/4.8.3/../../../../arm-none-eabi/lib/armv7-m\libc.a(lib_a-strlen.o)
 .text.strlen   0x00000000       0x60 c:/users/administrator/appdata/local/arduino15/packages/arduino/tools/arm-none-eabi-gcc/4.8.3-2014q1/bin/../lib/gcc/arm-none-eabi/4.8.3/../../../../arm-none-eabi/lib/armv7-m\libc.a(lib_a-strlen.o)
 .text          0x00000000        0x0 c:/users/administrator/appdata/local/arduino15/packages/arduino/tools/arm-none-eabi-gcc/4.8.3-2014q1/bin/../lib/gcc/arm-none-eabi/4.8.3/../../../../arm-none-eabi/lib/armv7-m\libc.a(lib_a-tzlock.o)
 .data          0x00000000        0x0 c:/users/administrator/appdata/local/arduino15/packages/arduino/tools/arm-none-eabi-gcc/4.8.3-2014q1/bin/../lib/gcc/arm-none-eabi/4.8.3/../../../../arm-none-eabi/lib/armv7-m\libc.a(lib_a-tzlock.o)
 .bss           0x00000000        0x0 c:/users/administrator/appdata/local/arduino15/packages/arduino/tools/arm-none-eabi-gcc/4.8.3-2014q1/bin/../lib/gcc/arm-none-eabi/4.8.3/../../../../arm-none-eabi/lib/armv7-m\libc.a(lib_a-tzlock.o)
 .text.__tz_lock
                0x00000000        0x4 c:/users/administrator/appdata/local/arduino15/packages/arduino/tools/arm-none-eabi-gcc/4.8.3-2014q1/bin/../lib/gcc/arm-none-eabi/4.8.3/../../../../arm-none-eabi/lib/armv7-m\libc.a(lib_a-tzlock.o)
 .text.__tz_unlock
                0x00000000        0x4 c:/users/administrator/appdata/local/arduino15/packages/arduino/tools/arm-none-eabi-gcc/4.8.3-2014q1/bin/../lib/gcc/arm-none-eabi/4.8.3/../../../../arm-none-eabi/lib/armv7-m\libc.a(lib_a-tzlock.o)
 .text          0x00000000        0x0 c:/users/administrator/appdata/local/arduino15/packages/arduino/tools/arm-none-eabi-gcc/4.8.3-2014q1/bin/../lib/gcc/arm-none-eabi/4.8.3/../../../../arm-none-eabi/lib/armv7-m\libc.a(lib_a-tzvars.o)
 .data          0x00000000        0x0 c:/users/administrator/appdata/local/arduino15/packages/arduino/tools/arm-none-eabi-gcc/4.8.3-2014q1/bin/../lib/gcc/arm-none-eabi/4.8.3/../../../../arm-none-eabi/lib/armv7-m\libc.a(lib_a-tzvars.o)
 .bss           0x00000000        0x0 c:/users/administrator/appdata/local/arduino15/packages/arduino/tools/arm-none-eabi-gcc/4.8.3-2014q1/bin/../lib/gcc/arm-none-eabi/4.8.3/../../../../arm-none-eabi/lib/armv7-m\libc.a(lib_a-tzvars.o)
 .data._tzname  0x00000000        0x8 c:/users/administrator/appdata/local/arduino15/packages/arduino/tools/arm-none-eabi-gcc/4.8.3-2014q1/bin/../lib/gcc/arm-none-eabi/4.8.3/../../../../arm-none-eabi/lib/armv7-m\libc.a(lib_a-tzvars.o)
 .bss._daylight
                0x00000000        0x4 c:/users/administrator/appdata/local/arduino15/packages/arduino/tools/arm-none-eabi-gcc/4.8.3-2014q1/bin/../lib/gcc/arm-none-eabi/4.8.3/../../../../arm-none-eabi/lib/armv7-m\libc.a(lib_a-tzvars.o)
 .bss._timezone
                0x00000000        0x4 c:/users/administrator/appdata/local/arduino15/packages/arduino/tools/arm-none-eabi-gcc/4.8.3-2014q1/bin/../lib/gcc/arm-none-eabi/4.8.3/../../../../arm-none-eabi/lib/armv7-m\libc.a(lib_a-tzvars.o)
 .rodata.str1.4
                0x00000000        0x4 c:/users/administrator/appdata/local/arduino15/packages/arduino/tools/arm-none-eabi-gcc/4.8.3-2014q1/bin/../lib/gcc/arm-none-eabi/4.8.3/../../../../arm-none-eabi/lib/armv7-m\libc.a(lib_a-tzvars.o)
 .text          0x00000000        0x0 c:/users/administrator/appdata/local/arduino15/packages/arduino/tools/arm-none-eabi-gcc/4.8.3-2014q1/bin/../lib/gcc/arm-none-eabi/4.8.3/../../../../arm-none-eabi/lib/armv7-m\libc.a(lib_a-__call_atexit.o)
 .data          0x00000000        0x0 c:/users/administrator/appdata/local/arduino15/packages/arduino/tools/arm-none-eabi-gcc/4.8.3-2014q1/bin/../lib/gcc/arm-none-eabi/4.8.3/../../../../arm-none-eabi/lib/armv7-m\libc.a(lib_a-__call_atexit.o)
 .bss           0x00000000        0x0 c:/users/administrator/appdata/local/arduino15/packages/arduino/tools/arm-none-eabi-gcc/4.8.3-2014q1/bin/../lib/gcc/arm-none-eabi/4.8.3/../../../../arm-none-eabi/lib/armv7-m\libc.a(lib_a-__call_atexit.o)
 .text          0x00000000        0x0 c:/users/administrator/appdata/local/arduino15/packages/arduino/tools/arm-none-eabi-gcc/4.8.3-2014q1/bin/../lib/gcc/arm-none-eabi/4.8.3/../../../../arm-none-eabi/lib/armv7-m\libc.a(lib_a-atexit.o)
 .data          0x00000000        0x0 c:/users/administrator/appdata/local/arduino15/packages/arduino/tools/arm-none-eabi-gcc/4.8.3-2014q1/bin/../lib/gcc/arm-none-eabi/4.8.3/../../../../arm-none-eabi/lib/armv7-m\libc.a(lib_a-atexit.o)
 .bss           0x00000000        0x0 c:/users/administrator/appdata/local/arduino15/packages/arduino/tools/arm-none-eabi-gcc/4.8.3-2014q1/bin/../lib/gcc/arm-none-eabi/4.8.3/../../../../arm-none-eabi/lib/armv7-m\libc.a(lib_a-atexit.o)
 .text          0x00000000        0x0 c:/users/administrator/appdata/local/arduino15/packages/arduino/tools/arm-none-eabi-gcc/4.8.3-2014q1/bin/../lib/gcc/arm-none-eabi/4.8.3/../../../../arm-none-eabi/lib/armv7-m\libc.a(lib_a-div.o)
 .data          0x00000000        0x0 c:/users/administrator/appdata/local/arduino15/packages/arduino/tools/arm-none-eabi-gcc/4.8.3-2014q1/bin/../lib/gcc/arm-none-eabi/4.8.3/../../../../arm-none-eabi/lib/armv7-m\libc.a(lib_a-div.o)
 .bss           0x00000000        0x0 c:/users/administrator/appdata/local/arduino15/packages/arduino/tools/arm-none-eabi-gcc/4.8.3-2014q1/bin/../lib/gcc/arm-none-eabi/4.8.3/../../../../arm-none-eabi/lib/armv7-m\libc.a(lib_a-div.o)
 .text.div      0x00000000       0x40 c:/users/administrator/appdata/local/arduino15/packages/arduino/tools/arm-none-eabi-gcc/4.8.3-2014q1/bin/../lib/gcc/arm-none-eabi/4.8.3/../../../../arm-none-eabi/lib/armv7-m\libc.a(lib_a-div.o)
 .text          0x00000000        0x0 c:/users/administrator/appdata/local/arduino15/packages/arduino/tools/arm-none-eabi-gcc/4.8.3-2014q1/bin/../lib/gcc/arm-none-eabi/4.8.3/../../../../arm-none-eabi/lib/armv7-m\libc.a(lib_a-fini.o)
 .data          0x00000000        0x0 c:/users/administrator/appdata/local/arduino15/packages/arduino/tools/arm-none-eabi-gcc/4.8.3-2014q1/bin/../lib/gcc/arm-none-eabi/4.8.3/../../../../arm-none-eabi/lib/armv7-m\libc.a(lib_a-fini.o)
 .bss           0x00000000        0x0 c:/users/administrator/appdata/local/arduino15/packages/arduino/tools/arm-none-eabi-gcc/4.8.3-2014q1/bin/../lib/gcc/arm-none-eabi/4.8.3/../../../../arm-none-eabi/lib/armv7-m\libc.a(lib_a-fini.o)
 .text          0x00000000        0x0 c:/users/administrator/appdata/local/arduino15/packages/arduino/tools/arm-none-eabi-gcc/4.8.3-2014q1/bin/../lib/gcc/arm-none-eabi/4.8.3/../../../../arm-none-eabi/lib/armv7-m\libc.a(lib_a-gettzinfo.o)
 .data          0x00000000        0x0 c:/users/administrator/appdata/local/arduino15/packages/arduino/tools/arm-none-eabi-gcc/4.8.3-2014q1/bin/../lib/gcc/arm-none-eabi/4.8.3/../../../../arm-none-eabi/lib/armv7-m\libc.a(lib_a-gettzinfo.o)
 .bss           0x00000000        0x0 c:/users/administrator/appdata/local/arduino15/packages/arduino/tools/arm-none-eabi-gcc/4.8.3-2014q1/bin/../lib/gcc/arm-none-eabi/4.8.3/../../../../arm-none-eabi/lib/armv7-m\libc.a(lib_a-gettzinfo.o)
 .text.__gettzinfo
                0x00000000        0x8 c:/users/administrator/appdata/local/arduino15/packages/arduino/tools/arm-none-eabi-gcc/4.8.3-2014q1/bin/../lib/gcc/arm-none-eabi/4.8.3/../../../../arm-none-eabi/lib/armv7-m\libc.a(lib_a-gettzinfo.o)
 .data.tzinfo   0x00000000       0x40 c:/users/administrator/appdata/local/arduino15/packages/arduino/tools/arm-none-eabi-gcc/4.8.3-2014q1/bin/../lib/gcc/arm-none-eabi/4.8.3/../../../../arm-none-eabi/lib/armv7-m\libc.a(lib_a-gettzinfo.o)
 .text          0x00000000        0x0 c:/users/administrator/appdata/local/arduino15/packages/arduino/tools/arm-none-eabi-gcc/4.8.3-2014q1/bin/../lib/gcc/arm-none-eabi/4.8.3/../../../../arm-none-eabi/lib/armv7-m\libc.a(lib_a-__atexit.o)
 .data          0x00000000        0x0 c:/users/administrator/appdata/local/arduino15/packages/arduino/tools/arm-none-eabi-gcc/4.8.3-2014q1/bin/../lib/gcc/arm-none-eabi/4.8.3/../../../../arm-none-eabi/lib/armv7-m\libc.a(lib_a-__atexit.o)
 .bss           0x00000000        0x0 c:/users/administrator/appdata/local/arduino15/packages/arduino/tools/arm-none-eabi-gcc/4.8.3-2014q1/bin/../lib/gcc/arm-none-eabi/4.8.3/../../../../arm-none-eabi/lib/armv7-m\libc.a(lib_a-__atexit.o)
 .text          0x00000000        0x0 c:/users/administrator/appdata/local/arduino15/packages/arduino/tools/arm-none-eabi-gcc/4.8.3-2014q1/bin/../lib/gcc/arm-none-eabi/4.8.3/armv7-m/crtend.o
 .data          0x00000000        0x0 c:/users/administrator/appdata/local/arduino15/packages/arduino/tools/arm-none-eabi-gcc/4.8.3-2014q1/bin/../lib/gcc/arm-none-eabi/4.8.3/armv7-m/crtend.o
 .bss           0x00000000        0x0 c:/users/administrator/appdata/local/arduino15/packages/arduino/tools/arm-none-eabi-gcc/4.8.3-2014q1/bin/../lib/gcc/arm-none-eabi/4.8.3/armv7-m/crtend.o
 .eh_frame      0x00000000        0x4 c:/users/administrator/appdata/local/arduino15/packages/arduino/tools/arm-none-eabi-gcc/4.8.3-2014q1/bin/../lib/gcc/arm-none-eabi/4.8.3/armv7-m/crtend.o
 .jcr           0x00000000        0x4 c:/users/administrator/appdata/local/arduino15/packages/arduino/tools/arm-none-eabi-gcc/4.8.3-2014q1/bin/../lib/gcc/arm-none-eabi/4.8.3/armv7-m/crtend.o
 .text          0x00000000        0x0 c:/users/administrator/appdata/local/arduino15/packages/arduino/tools/arm-none-eabi-gcc/4.8.3-2014q1/bin/../lib/gcc/arm-none-eabi/4.8.3/armv7-m/crtn.o
 .data          0x00000000        0x0 c:/users/administrator/appdata/local/arduino15/packages/arduino/tools/arm-none-eabi-gcc/4.8.3-2014q1/bin/../lib/gcc/arm-none-eabi/4.8.3/armv7-m/crtn.o
 .bss           0x00000000        0x0 c:/users/administrator/appdata/local/arduino15/packages/arduino/tools/arm-none-eabi-gcc/4.8.3-2014q1/bin/../lib/gcc/arm-none-eabi/4.8.3/armv7-m/crtn.o

Memory Configuration

Name             Origin             Length             Attributes
ram              0x20000000         0x0000c000         xrw
rom              0x08000000         0x00040000         xr
*default*        0x00000000         0xffffffff

Linker script and memory map

LOAD c:/users/administrator/appdata/local/arduino15/packages/arduino/tools/arm-none-eabi-gcc/4.8.3-2014q1/bin/../lib/gcc/arm-none-eabi/4.8.3/armv7-m/crti.o
LOAD c:/users/administrator/appdata/local/arduino15/packages/arduino/tools/arm-none-eabi-gcc/4.8.3-2014q1/bin/../lib/gcc/arm-none-eabi/4.8.3/armv7-m/crtbegin.o
LOAD c:/users/administrator/appdata/local/arduino15/packages/arduino/tools/arm-none-eabi-gcc/4.8.3-2014q1/bin/../lib/gcc/arm-none-eabi/4.8.3/../../../../arm-none-eabi/lib/armv7-m/crt0.o
LOAD c:/users/administrator/appdata/local/arduino15/packages/arduino/tools/arm-none-eabi-gcc/4.8.3-2014q1/bin/../lib/gcc/arm-none-eabi/4.8.3/armv7-m\libgcc.a
START GROUP
LOAD LoRa_Roll_Film.cpp.o
LOAD User_Clock.c.o
LOAD AT24CXX.cpp.o
LOAD BCD_CON.cpp.o
LOAD Command_Analysis.cpp.o
LOAD fun_periph.cpp.o
LOAD i2c.cpp.o
LOAD IAP.cpp.o
LOAD LoRa.cpp.o
LOAD Memory.cpp.o
LOAD Motor.cpp.o
LOAD Private_RTC.cpp.o
LOAD Private_Timer.cpp.o
LOAD public.cpp.o
LOAD receipt.cpp.o
LOAD Security.cpp.o
LOAD User_CRC8.cpp.o
LOAD RTClock\RTClock.cpp.o
LOAD RTClock\utility\rtc_util.c.o
LOAD C:\Users\Administrator\AppData\Local\Temp\VMBCore\arduino16x\a25b0c93d50495b56da79188cbb05a7a\variant\board.cpp.o
LOAD C:\Users\Administrator\AppData\Local\Temp\VMBCore\arduino16x\a25b0c93d50495b56da79188cbb05a7a\variant\boards.cpp.o
LOAD C:\Users\Administrator\AppData\Local\Temp\VMBCore\arduino16x\a25b0c93d50495b56da79188cbb05a7a\variant\boards_setup.cpp.o
LOAD C:\Users\Administrator\AppData\Local\Temp\VMBCore\arduino16x\a25b0c93d50495b56da79188cbb05a7a\variant\start.S.o
LOAD C:\Users\Administrator\AppData\Local\Temp\VMBCore\arduino16x\a25b0c93d50495b56da79188cbb05a7a\variant\start_c.c.o
LOAD C:\Users\Administrator\AppData\Local\Temp\VMBCore\arduino16x\a25b0c93d50495b56da79188cbb05a7a\variant\syscalls.c.o
LOAD C:\Users\Administrator\AppData\Local\Temp\VMBuilds\LoRa_Roll_Film\stm32_genericSTM32F103R\Release/core.a
END GROUP
LOAD c:/users/administrator/appdata/local/arduino15/packages/arduino/tools/arm-none-eabi-gcc/4.8.3-2014q1/bin/../lib/gcc/arm-none-eabi/4.8.3/../../../../arm-none-eabi/lib/armv7-m\libstdc++.a
LOAD c:/users/administrator/appdata/local/arduino15/packages/arduino/tools/arm-none-eabi-gcc/4.8.3-2014q1/bin/../lib/gcc/arm-none-eabi/4.8.3/../../../../arm-none-eabi/lib/armv7-m\libm.a
START GROUP
LOAD c:/users/administrator/appdata/local/arduino15/packages/arduino/tools/arm-none-eabi-gcc/4.8.3-2014q1/bin/../lib/gcc/arm-none-eabi/4.8.3/armv7-m\libgcc.a
LOAD c:/users/administrator/appdata/local/arduino15/packages/arduino/tools/arm-none-eabi-gcc/4.8.3-2014q1/bin/../lib/gcc/arm-none-eabi/4.8.3/../../../../arm-none-eabi/lib/armv7-m\libc.a
END GROUP
LOAD c:/users/administrator/appdata/local/arduino15/packages/arduino/tools/arm-none-eabi-gcc/4.8.3-2014q1/bin/../lib/gcc/arm-none-eabi/4.8.3/armv7-m/crtend.o
LOAD c:/users/administrator/appdata/local/arduino15/packages/arduino/tools/arm-none-eabi-gcc/4.8.3-2014q1/bin/../lib/gcc/arm-none-eabi/4.8.3/armv7-m/crtn.o
START GROUP
LOAD c:/users/administrator/appdata/local/arduino15/packages/arduino/tools/arm-none-eabi-gcc/4.8.3-2014q1/bin/../lib/gcc/arm-none-eabi/4.8.3/armv7-m\libgcc.a
LOAD c:/users/administrator/appdata/local/arduino15/packages/arduino/tools/arm-none-eabi-gcc/4.8.3-2014q1/bin/../lib/gcc/arm-none-eabi/4.8.3/../../../../arm-none-eabi/lib/armv7-m\libc.a
LOAD c:/users/administrator/appdata/local/arduino15/packages/arduino/tools/arm-none-eabi-gcc/4.8.3-2014q1/bin/../lib/gcc/arm-none-eabi/4.8.3/../../../../arm-none-eabi/lib/armv7-m\libm.a
END GROUP
START GROUP
LOAD c:/users/administrator/appdata/local/arduino15/packages/arduino/tools/arm-none-eabi-gcc/4.8.3-2014q1/bin/../lib/gcc/arm-none-eabi/4.8.3/../../../../arm-none-eabi/lib/armv7-m\libnosys.a
END GROUP
                0x2000c000                PROVIDE (__msp_init, (ORIGIN (ram) + 0xc000))
                0x080059a8                PROVIDE (__exc_reset, __start__)

.text           0x08000000     0x8e3c
                0x08000000                __text_start__ = .
 *(.stm32.interrupt_vector)
 .stm32.interrupt_vector
                0x08000000      0x130 C:\Users\Administrator\AppData\Local\Temp\VMBuilds\LoRa_Roll_Film\stm32_genericSTM32F103R\Release/core.a(vector_table.S.o)
                0x08000000                __stm32_vector_table
 *(.text .text.* .gnu.linkonce.t.*)
 .text          0x08000130       0x54 c:/users/administrator/appdata/local/arduino15/packages/arduino/tools/arm-none-eabi-gcc/4.8.3-2014q1/bin/../lib/gcc/arm-none-eabi/4.8.3/armv7-m/crtbegin.o
 .text._Z22Request_Access_Networkv
                0x08000184      0x11c LoRa_Roll_Film.cpp.o
                0x08000184                Request_Access_Network()
 .text._Z13Project_Debugv
                0x080002a0       0xfc LoRa_Roll_Film.cpp.o
                0x080002a0                Project_Debug()
 .text._Z5setupv
                0x0800039c      0x148 LoRa_Roll_Film.cpp.o
                0x0800039c                setup()
 .text._Z23Key_Clear_Current_Valuev
                0x080004e4       0x5c LoRa_Roll_Film.cpp.o
                0x080004e4                Key_Clear_Current_Value()
 .text._Z4loopv
                0x08000540       0x34 LoRa_Roll_Film.cpp.o
                0x08000540                loop()
 .text._ZN7AT24Cxx8I2C_InitEv
                0x08000574        0x4 AT24CXX.cpp.o
                0x08000574                AT24Cxx::I2C_Init()
 .text._ZN7AT24Cxx19AT24CXX_ReadOneByteEj
                0x08000578       0x5c AT24CXX.cpp.o
                0x08000578                AT24Cxx::AT24CXX_ReadOneByte(unsigned int)
 .text._ZN7AT24Cxx20AT24CXX_WriteOneByteEjh
                0x080005d4       0x4e AT24CXX.cpp.o
                0x080005d4                AT24Cxx::AT24CXX_WriteOneByte(unsigned int, unsigned char)
 *fill*         0x08000622        0x2 
 .text._ZN16Command_Analysis16FrameID_AnalysisEv
                0x08000624       0x5c Command_Analysis.cpp.o
                0x08000624                Command_Analysis::FrameID_Analysis()
 .text._ZN16Command_Analysis11Verify_CRC8Ehh
                0x08000680       0x28 Command_Analysis.cpp.o
                0x08000680                Command_Analysis::Verify_CRC8(unsigned char, unsigned char)
 .text._ZN16Command_Analysis21Verify_Device_Type_IDEv
                0x080006a8       0x28 Command_Analysis.cpp.o
                0x080006a8                Command_Analysis::Verify_Device_Type_ID()
 .text._ZN16Command_Analysis20Verify_Mass_CommandsEv
                0x080006d0       0x1c Command_Analysis.cpp.o
                0x080006d0                Command_Analysis::Verify_Mass_Commands()
 .text._ZN16Command_Analysis18Verify_Area_NumberEv
                0x080006ec       0x2c Command_Analysis.cpp.o
                0x080006ec                Command_Analysis::Verify_Area_Number()
 .text._ZN16Command_Analysis17Verify_Work_GroupEv
                0x08000718       0x40 Command_Analysis.cpp.o
                0x08000718                Command_Analysis::Verify_Work_Group()
 .text._ZN16Command_Analysis21Verify_Frame_ValidityEhhbb
                0x08000758       0x98 Command_Analysis.cpp.o
                0x08000758                Command_Analysis::Verify_Frame_Validity(unsigned char, unsigned char, bool, bool)
 .text._ZN16Command_Analysis24Query_Current_Work_ParamEv
                0x080007f0       0x9c Command_Analysis.cpp.o
                0x080007f0                Command_Analysis::Query_Current_Work_Param()
 .text._ZN16Command_Analysis16Set_Group_NumberEv
                0x0800088c       0x8c Command_Analysis.cpp.o
                0x0800088c                Command_Analysis::Set_Group_Number()
 .text._ZN16Command_Analysis19Set_SN_Area_ChannelEv
                0x08000918       0xb4 Command_Analysis.cpp.o
                0x08000918                Command_Analysis::Set_SN_Area_Channel()
 .text._ZN16Command_Analysis20Detailed_Work_StatusEv
                0x080009cc       0x4c Command_Analysis.cpp.o
                0x080009cc                Command_Analysis::Detailed_Work_Status()
 .text._ZN16Command_Analysis17Stop_Work_CommandEv
                0x08000a18       0x58 Command_Analysis.cpp.o
                0x08000a18                Command_Analysis::Stop_Work_Command()
 .text._ZN16Command_Analysis17ResetRoll_CommandEv
                0x08000a70      0x11c Command_Analysis.cpp.o
                0x08000a70                Command_Analysis::ResetRoll_Command()
 .text._ZN16Command_Analysis15Opening_CommandEv
                0x08000b8c      0x330 Command_Analysis.cpp.o
                0x08000b8c                Command_Analysis::Opening_Command()
 .text._ZN16Command_Analysis21Working_Limit_CommandEv
                0x08000ebc       0x9c Command_Analysis.cpp.o
                0x08000ebc                Command_Analysis::Working_Limit_Command()
 .text._ZN16Command_Analysis21Receive_Data_AnalysisEv
                0x08000f58       0x6a Command_Analysis.cpp.o
                0x08000f58                Command_Analysis::Receive_Data_Analysis()
 *fill*         0x08000fc2        0x2 
 .text._ZN16Command_Analysis16Receive_LoRa_CmdEv
                0x08000fc4      0x164 Command_Analysis.cpp.o
                0x08000fc4                Command_Analysis::Receive_LoRa_Cmd()
 .text._Z13LED_Interruptv
                0x08001128       0xbc fun_periph.cpp.o
                0x08001128                LED_Interrupt()
 .text._ZN16Some_Peripherals22Peripheral_GPIO_ConfigEv
                0x080011e4       0x66 fun_periph.cpp.o
                0x080011e4                Some_Peripherals::Peripheral_GPIO_Config()
 *fill*         0x0800124a        0x2 
 .text._ZN16Some_Peripherals11LED_DisplayE3LEDh
                0x0800124c       0x40 fun_periph.cpp.o
                0x0800124c                Some_Peripherals::LED_Display(LED, unsigned char)
 .text._ZN16Some_Peripherals8Stop_LEDEv
                0x0800128c       0x30 fun_periph.cpp.o
                0x0800128c                Some_Peripherals::Stop_LED()
 .text._ZN16Some_Peripherals9Start_LEDEv
                0x080012bc        0xc fun_periph.cpp.o
                0x080012bc                Some_Peripherals::Start_LED()
 .text._ZN16Some_Peripherals8Key_BuzzEj
                0x080012c8       0x2e fun_periph.cpp.o
                0x080012c8                Some_Peripherals::Key_Buzz(unsigned int)
 .text._ZN3I2C4InitEv
                0x080012f6       0x26 i2c.cpp.o
                0x080012f6                I2C::Init()
 .text._ZN3I2C7SDA_OutEv
                0x0800131c        0x8 i2c.cpp.o
                0x0800131c                I2C::SDA_Out()
 .text._ZN3I2C6SDA_InEv
                0x08001324        0x8 i2c.cpp.o
                0x08001324                I2C::SDA_In()
 .text._ZN3I2C5StartEv
                0x0800132c       0x36 i2c.cpp.o
                0x0800132c                I2C::Start()
 .text._ZN3I2C4StopEv
                0x08001362       0x36 i2c.cpp.o
                0x08001362                I2C::Stop()
 .text._ZN3I2C3AckEv
                0x08001398       0x3a i2c.cpp.o
                0x08001398                I2C::Ack()
 .text._ZN3I2C4NAckEv
                0x080013d2       0x3a i2c.cpp.o
                0x080013d2                I2C::NAck()
 .text._ZN3I2C8Wait_AckEv
                0x0800140c       0x4e i2c.cpp.o
                0x0800140c                I2C::Wait_Ack()
 .text._ZN3I2C9Send_ByteEh
                0x0800145a       0x4e i2c.cpp.o
                0x0800145a                I2C::Send_Byte(unsigned char)
 .text._ZN3I2C9Read_ByteEh
                0x080014a8       0x54 i2c.cpp.o
                0x080014a8                I2C::Read_Byte(unsigned char)
 .text._ZN4LoRa16LoRa_GPIO_ConfigEv
                0x080014fc       0x46 LoRa.cpp.o
                0x080014fc                LoRa::LoRa_GPIO_Config()
 *fill*         0x08001542        0x2 
 .text._ZN4LoRa8BaudRateEj
                0x08001544        0xc LoRa.cpp.o
                0x08001544                LoRa::BaudRate(unsigned int)
 .text._ZN4LoRa7IsResetEb
                0x08001550       0x20 LoRa.cpp.o
                0x08001550                LoRa::IsReset(bool)
 .text._ZN4LoRa13LoRa_ShutdownEv
                0x08001570       0x40 LoRa.cpp.o
                0x08001570                LoRa::LoRa_Shutdown()
 .text._ZN4LoRa20Detect_Error_ReceiptEPh
                0x080015b0       0x38 LoRa.cpp.o
                0x080015b0                LoRa::Detect_Error_Receipt(unsigned char*)
 .text._ZN4LoRa17Detect_OK_ReceiptEPhS0_
                0x080015e8       0x1a LoRa.cpp.o
                0x080015e8                LoRa::Detect_OK_Receipt(unsigned char*, unsigned char*)
 .text._ZN4LoRa7Get_CSQEPhhS0_
                0x08001602       0x2a LoRa.cpp.o
                0x08001602                LoRa::Get_CSQ(unsigned char*, unsigned char, unsigned char*)
 .text._ZN4LoRa13Parse_CommandEPhhS0_PS0_
                0x0800162c       0x6c LoRa.cpp.o
                0x0800162c                LoRa::Parse_Command(unsigned char*, unsigned char, unsigned char*, unsigned char**)
 .text._ZN4LoRa4ModeE9LoRa_Mode
                0x08001698       0x60 LoRa.cpp.o
                0x08001698                LoRa::Mode(LoRa_Mode)
 .text._ZN4LoRa12LoRa_RestartEv
                0x080016f8       0x30 LoRa.cpp.o
                0x080016f8                LoRa::LoRa_Restart()
 .text._ZN4LoRa12AT_Query_CmdEPKcPhS2_
                0x08001728       0xdc LoRa.cpp.o
                0x08001728                LoRa::AT_Query_Cmd(char const*, unsigned char*, unsigned char*)
 .text._ZN4LoRa13AT_Config_CmdEPKcS1_Ph
                0x08001804      0x124 LoRa.cpp.o
                0x08001804                LoRa::AT_Config_Cmd(char const*, char const*, unsigned char*)
 .text._ZN4LoRa7LoRa_ATEPhbPKcS2_
                0x08001928       0xb0 LoRa.cpp.o
                0x08001928                LoRa::LoRa_AT(unsigned char*, bool, char const*, char const*)
 .text._ZN4LoRa10Rewrite_IDEv
                0x080019d8      0x11c LoRa.cpp.o
                0x080019d8                LoRa::Rewrite_ID()
 .text._ZN4LoRa11Param_CheckEPKcS1_b
                0x08001af4      0x15c LoRa.cpp.o
                0x08001af4                LoRa::Param_Check(char const*, char const*, bool)
 .text._ZN4LoRa14Parameter_InitEb
                0x08001c50      0x228 LoRa.cpp.o
                0x08001c50                LoRa::Parameter_Init(bool)
 .text._Z20EEPROM_Write_Disablev
                0x08001e78        0x8 Memory.cpp.o
                0x08001e78                EEPROM_Write_Disable()
 .text._Z19EEPROM_Write_Enablev
                0x08001e80        0x8 Memory.cpp.o
                0x08001e80                EEPROM_Write_Enable()
 .text._ZN17EEPROM_Operations18EEPROM_GPIO_ConfigEv
                0x08001e88       0x1e Memory.cpp.o
                0x08001e88                EEPROM_Operations::EEPROM_GPIO_Config()
 .text._ZN13SN_Operations12Save_SN_CodeEPh
                0x08001ea6       0x80 Memory.cpp.o
                0x08001ea6                SN_Operations::Save_SN_Code(unsigned char*)
 .text._ZN13SN_Operations16Save_BKP_SN_CodeEPh
                0x08001f26       0x80 Memory.cpp.o
                0x08001f26                SN_Operations::Save_BKP_SN_Code(unsigned char*)
 .text._ZN13SN_Operations12Read_SN_CodeEPh
                0x08001fa6       0x58 Memory.cpp.o
                0x08001fa6                SN_Operations::Read_SN_Code(unsigned char*)
 .text._ZN13SN_Operations16Read_BKP_SN_CodeEPh
                0x08001ffe       0x58 Memory.cpp.o
                0x08001ffe                SN_Operations::Read_BKP_SN_Code(unsigned char*)
 .text._ZN13SN_Operations16Read_Random_SeedEPh
                0x08002056       0x2a Memory.cpp.o
                0x08002056                SN_Operations::Read_Random_Seed(unsigned char*)
 .text._ZN13SN_Operations18Clear_SN_Save_FlagEv
                0x08002080       0x34 Memory.cpp.o
                0x08002080                SN_Operations::Clear_SN_Save_Flag()
 .text._ZN13SN_Operations22Clear_BKP_SN_Save_FlagEv
                0x080020b4       0x34 Memory.cpp.o
                0x080020b4                SN_Operations::Clear_BKP_SN_Save_Flag()
 .text._ZN13SN_Operations26Set_SN_Access_Network_FlagEv
                0x080020e8       0x36 Memory.cpp.o
                0x080020e8                SN_Operations::Set_SN_Access_Network_Flag()
 *fill*         0x0800211e        0x2 
 .text._ZN13SN_Operations28Clear_SN_Access_Network_FlagEv
                0x08002120       0x64 Memory.cpp.o
                0x08002120                SN_Operations::Clear_SN_Access_Network_Flag()
 .text._ZN13SN_Operations29Verify_SN_Access_Network_FlagEv
                0x08002184       0x12 Memory.cpp.o
                0x08002184                SN_Operations::Verify_SN_Access_Network_Flag()
 *fill*         0x08002196        0x2 
 .text._ZN13SN_Operations10Self_checkEPh
                0x08002198       0x88 Memory.cpp.o
                0x08002198                SN_Operations::Self_check(unsigned char*)
 .text._ZN11LoRa_Config21Save_LoRa_Config_FlagEv
                0x08002220       0x36 Memory.cpp.o
                0x08002220                LoRa_Config::Save_LoRa_Config_Flag()
 .text._ZN11LoRa_Config23Save_LoRa_Com_Mode_FlagEv
                0x08002256       0x34 Memory.cpp.o
                0x08002256                LoRa_Config::Save_LoRa_Com_Mode_Flag()
 *fill*         0x0800228a        0x2 
 .text._ZN11LoRa_Config18Save_LoRa_Com_ModeEh
                0x0800228c       0x80 Memory.cpp.o
                0x0800228c                LoRa_Config::Save_LoRa_Com_Mode(unsigned char)
 .text._ZN11LoRa_Config18Read_LoRa_Com_ModeEv
                0x0800230c       0x3a Memory.cpp.o
                0x0800230c                LoRa_Config::Read_LoRa_Com_Mode()
 *fill*         0x08002346        0x2 
 .text._ZN11LoRa_Config14Read_LoRa_AddrEPh
                0x08002348       0x5c Memory.cpp.o
                0x08002348                LoRa_Config::Read_LoRa_Addr(unsigned char*)
 .text._ZN11LoRa_Config19Save_LoRa_Addr_FlagEv
                0x080023a4       0x22 Memory.cpp.o
                0x080023a4                LoRa_Config::Save_LoRa_Addr_Flag()
 .text._ZN11LoRa_Config20Clear_LoRa_Addr_FlagEv
                0x080023c6       0x20 Memory.cpp.o
                0x080023c6                LoRa_Config::Clear_LoRa_Addr_Flag()
 *fill*         0x080023e6        0x2 
 .text._ZN11LoRa_Config14Save_LoRa_AddrEPh
                0x080023e8       0x84 Memory.cpp.o
                0x080023e8                LoRa_Config::Save_LoRa_Addr(unsigned char*)
 .text._ZN11LoRa_Config21Verify_LoRa_Addr_FlagEv
                0x0800246c       0x12 Memory.cpp.o
                0x0800246c                LoRa_Config::Verify_LoRa_Addr_Flag()
 .text._ZN15Roll_Operations19Set_Route_Save_FlagEv
                0x0800247e       0x36 Memory.cpp.o
                0x0800247e                Roll_Operations::Set_Route_Save_Flag()
 .text._ZN15Roll_Operations20Read_Route_Save_FlagEv
                0x080024b4       0x12 Memory.cpp.o
                0x080024b4                Roll_Operations::Read_Route_Save_Flag()
 .text._ZN15Roll_Operations21Clear_Route_Save_FlagEv
                0x080024c6       0x34 Memory.cpp.o
                0x080024c6                Roll_Operations::Clear_Route_Save_Flag()
 .text._ZN15Roll_Operations17Save_Rolling_TimeEj
                0x080024fa       0x98 Memory.cpp.o
                0x080024fa                Roll_Operations::Save_Rolling_Time(unsigned int)
 .text._ZN15Roll_Operations17Read_Rolling_TimeEv
                0x08002592       0x44 Memory.cpp.o
                0x08002592                Roll_Operations::Read_Rolling_Time()
 .text._ZN15Roll_Operations23Save_Last_Opening_ValueEh
                0x080025d6       0x66 Memory.cpp.o
                0x080025d6                Roll_Operations::Save_Last_Opening_Value(unsigned char)
 .text._ZN15Roll_Operations23Read_Last_Opening_ValueEv
                0x0800263c       0x3c Memory.cpp.o
                0x0800263c                Roll_Operations::Read_Last_Opening_Value()
 .text._ZN15Roll_Operations26Save_Current_Opening_ValueEh
                0x08002678       0x66 Memory.cpp.o
                0x08002678                Roll_Operations::Save_Current_Opening_Value(unsigned char)
 .text._ZN15Roll_Operations26Read_Current_Opening_ValueEv
                0x080026de       0x3c Memory.cpp.o
                0x080026de                Roll_Operations::Read_Current_Opening_Value()
 .text._ZN15Roll_Operations27Save_RealTime_Opening_ValueEh
                0x0800271a       0x66 Memory.cpp.o
                0x0800271a                Roll_Operations::Save_RealTime_Opening_Value(unsigned char)
 .text._ZN15Roll_Operations27Read_RealTime_Opening_ValueEv
                0x08002780       0x3c Memory.cpp.o
                0x08002780                Roll_Operations::Read_RealTime_Opening_Value()
 .text._ZN15Roll_Operations23Clear_All_Opening_ValueEv
                0x080027bc       0x6e Memory.cpp.o
                0x080027bc                Roll_Operations::Clear_All_Opening_Value()
 .text._ZN15Roll_Operations17Save_Group_NumberEPh
                0x0800282a       0x9c Memory.cpp.o
                0x0800282a                Roll_Operations::Save_Group_Number(unsigned char*)
 .text._ZN15Roll_Operations17Read_Group_NumberEPh
                0x080028c6       0x4e Memory.cpp.o
                0x080028c6                Roll_Operations::Read_Group_Number(unsigned char*)
 .text._ZN15Roll_Operations18Check_Group_NumberEv
                0x08002914       0x38 Memory.cpp.o
                0x08002914                Roll_Operations::Check_Group_Number()
 .text._ZN15Roll_Operations18Clear_Group_NumberEv
                0x0800294c       0x52 Memory.cpp.o
                0x0800294c                Roll_Operations::Clear_Group_Number()
 .text._ZN15Roll_Operations16Save_Area_NumberEh
                0x0800299e       0x72 Memory.cpp.o
                0x0800299e                Roll_Operations::Save_Area_Number(unsigned char)
 .text._ZN15Roll_Operations16Read_Area_NumberEv
                0x08002a10        0x6 Memory.cpp.o
                0x08002a10                Roll_Operations::Read_Area_Number()
 .text._ZN15Roll_Operations17Check_Area_NumberEv
                0x08002a16       0x2c Memory.cpp.o
                0x08002a16                Roll_Operations::Check_Area_Number()
 .text._ZN15Roll_Operations17Clear_Area_NumberEv
                0x08002a42       0x34 Memory.cpp.o
                0x08002a42                Roll_Operations::Clear_Area_Number()
 .text._ZN15Roll_Operations42Save_Roll_Work_Voltage_and_Report_IntervalEPh
                0x08002a76       0x70 Memory.cpp.o
                0x08002a76                Roll_Operations::Save_Roll_Work_Voltage_and_Report_Interval(unsigned char*)
 .text._ZN15Roll_Operations33Read_Roll_Low_Voltage_Limit_ValueEv
                0x08002ae6       0x24 Memory.cpp.o
                0x08002ae6                Roll_Operations::Read_Roll_Low_Voltage_Limit_Value()
 .text._ZN15Roll_Operations34Read_Roll_High_Current_Limit_ValueEv
                0x08002b0a       0x24 Memory.cpp.o
                0x08002b0a                Roll_Operations::Read_Roll_High_Current_Limit_Value()
 .text._ZN15Roll_Operations38Read_Roll_Report_Status_Interval_ValueEv
                0x08002b2e       0x14 Memory.cpp.o
                0x08002b2e                Roll_Operations::Read_Roll_Report_Status_Interval_Value()
 .text._ZN15Roll_Operations17Save_Roll_VoltageEj
                0x08002b42       0x9c Memory.cpp.o
                0x08002b42                Roll_Operations::Save_Roll_Voltage(unsigned int)
 .text._ZN15Roll_Operations17Read_Roll_VoltageEPj
                0x08002bde       0x54 Memory.cpp.o
                0x08002bde                Roll_Operations::Read_Roll_Voltage(unsigned int*)
 .text._ZN15Roll_Operations20Save_Roll_Up_CurrentEj
                0x08002c32       0xb8 Memory.cpp.o
                0x08002c32                Roll_Operations::Save_Roll_Up_Current(unsigned int)
 .text._ZN15Roll_Operations20Read_Roll_Up_CurrentEPj
                0x08002cea       0x54 Memory.cpp.o
                0x08002cea                Roll_Operations::Read_Roll_Up_Current(unsigned int*)
 .text._ZN15Roll_Operations22Save_Roll_Down_CurrentEj
                0x08002d3e       0xb8 Memory.cpp.o
                0x08002d3e                Roll_Operations::Save_Roll_Down_Current(unsigned int)
 .text._ZN15Roll_Operations22Read_Roll_Down_CurrentEPj
                0x08002df6       0x54 Memory.cpp.o
                0x08002df6                Roll_Operations::Read_Roll_Down_Current(unsigned int*)
 .text._ZN15Roll_Operations19Verify_Current_FlagEv
                0x08002e4a       0x26 Memory.cpp.o
                0x08002e4a                Roll_Operations::Verify_Current_Flag()
 .text._ZN15Roll_Operations18Clear_Current_FlagEv
                0x08002e70       0x36 Memory.cpp.o
                0x08002e70                Roll_Operations::Clear_Current_Flag()
 .text._ZN15Roll_Operations18Current_Self_CheckEv
                0x08002ea6       0x84 Memory.cpp.o
                0x08002ea6                Roll_Operations::Current_Self_Check()
 *fill*         0x08002f2a        0x2 
 .text._Z26Manual_Up_Change_Interruptv
                0x08002f2c       0x6c Motor.cpp.o
                0x08002f2c                Manual_Up_Change_Interrupt()
 .text._Z28Manual_Down_Change_Interruptv
                0x08002f98       0x6c Motor.cpp.o
                0x08002f98                Manual_Down_Change_Interrupt()
 .text._ZN16Motor_Operations17Motor_GPIO_ConfigEv
                0x08003004       0x98 Motor.cpp.o
                0x08003004                Motor_Operations::Motor_GPIO_Config()
 .text._ZN16Motor_Operations19Direction_SelectionE13Motor_forward
                0x0800309c       0x2e Motor.cpp.o
                0x0800309c                Motor_Operations::Direction_Selection(Motor_forward)
 *fill*         0x080030ca        0x2 
 .text._ZN16Motor_Operations18Motor_Current_InitEPfPj15Limit_Detection
                0x080030cc       0x78 Motor.cpp.o
                0x080030cc                Motor_Operations::Motor_Current_Init(float*, unsigned int*, Limit_Detection)
 .text._ZN16Motor_Operations14Finish_RollingEv
                0x08003144       0x34 Motor.cpp.o
                0x08003144                Motor_Operations::Finish_Rolling()
 .text._ZN16Motor_Operations21Detect_Motor_OvertimeE15Limit_Detection
                0x08003178      0x16c Motor.cpp.o
                0x08003178                Motor_Operations::Detect_Motor_Overtime(Limit_Detection)
 .text._ZN16Motor_Operations15Force_Stop_WorkE11Roll_Actionh
                0x080032e4       0xa8 Motor.cpp.o
                0x080032e4                Motor_Operations::Force_Stop_Work(Roll_Action, unsigned char)
 *fill*         0x0800338c        0x4 
 .text._ZN16Motor_Operations17Current_DetectionEv
                0x08003390       0x80 Motor.cpp.o
                0x08003390                Motor_Operations::Current_Detection()
 .text._ZN16Motor_Operations18Detect_Motor_LimitEPh15Limit_Detection11Roll_Actionhj
                0x08003410       0xc0 Motor.cpp.o
                0x08003410                Motor_Operations::Detect_Motor_Limit(unsigned char*, Limit_Detection, Roll_Action, unsigned char, unsigned int)
 .text._ZN16Motor_Operations24Detect_Motor_OverCurrentEfjh
                0x080034d0       0x7c Motor.cpp.o
                0x080034d0                Motor_Operations::Detect_Motor_OverCurrent(float, unsigned int, unsigned char)
 .text._ZN16Motor_Operations20Motor_Current_StatusEfjh
                0x0800354c       0xc8 Motor.cpp.o
                0x0800354c                Motor_Operations::Motor_Current_Status(float, unsigned int, unsigned char)
 .text._ZN16Motor_Operations21Detect_Manual_RollingEv
                0x08003614       0xdc Motor.cpp.o
                0x08003614                Motor_Operations::Detect_Manual_Rolling()
 .text._ZN16Motor_Operations15Verify_Reset_OKEPhbb
                0x080036f0      0x180 Motor.cpp.o
                0x080036f0                Motor_Operations::Verify_Reset_OK(unsigned char*, bool, bool)
 .text._ZN16Motor_Operations19Force_Open_or_CloseEh
                0x08003870      0x1d0 Motor.cpp.o
                0x08003870                Motor_Operations::Force_Open_or_Close(unsigned char)
 .text._ZN16Motor_Operations13Trace_OpeningEv
                0x08003a40      0x150 Motor.cpp.o
                0x08003a40                Motor_Operations::Trace_Opening()
 .text._ZN16Motor_Operations17Voltage_DetectionEv
                0x08003b90       0xd8 Motor.cpp.o
                0x08003b90                Motor_Operations::Voltage_Detection()
 .text._ZN16Motor_Operations17Calculate_VoltageEPjPmPiS0_
                0x08003c68       0x54 Motor.cpp.o
                0x08003c68                Motor_Operations::Calculate_Voltage(unsigned int*, unsigned long*, int*, unsigned int*)
 .text._ZN16Motor_Operations26Calculate_and_Save_VoltageEPjPmPiS0_
                0x08003cbc       0x84 Motor.cpp.o
                0x08003cbc                Motor_Operations::Calculate_and_Save_Voltage(unsigned int*, unsigned long*, int*, unsigned int*)
 .text._ZN16Motor_Operations24Dynamic_Adjust_Roll_TimeEjPj
                0x08003d40      0x1a0 Motor.cpp.o
                0x08003d40                Motor_Operations::Dynamic_Adjust_Roll_Time(unsigned int, unsigned int*)
 .text._ZN16Motor_Operations13Motor_CoilingEv
                0x08003ee0      0x580 Motor.cpp.o
                0x08003ee0                Motor_Operations::Motor_Coiling()
 .text._ZN16Motor_Operations16Adjust_deviationEv
                0x08004460       0xd8 Motor.cpp.o
                0x08004460                Motor_Operations::Adjust_deviation()
 .text._ZN16Motor_Operations14Adjust_OpeningEv
                0x08004538       0xc4 Motor.cpp.o
                0x08004538                Motor_Operations::Adjust_Opening()
 .text._ZN16Motor_Operations15Collect_CurrentEPjS0_S0_S0_
                0x080045fc       0x4c Motor.cpp.o
                0x080045fc                Motor_Operations::Collect_Current(unsigned int*, unsigned int*, unsigned int*, unsigned int*)
 .text._ZN16Motor_Operations26Calculate_and_Save_CurrentEPjS0_S0_S0_15Limit_Detection
                0x08004648      0x1cc Motor.cpp.o
                0x08004648                Motor_Operations::Calculate_and_Save_Current(unsigned int*, unsigned int*, unsigned int*, unsigned int*, Limit_Detection)
 .text._ZN16Motor_Operations17Reset_Motor_RouteEv
                0x08004814      0x3f8 Motor.cpp.o
                0x08004814                Motor_Operations::Reset_Motor_Route()
 .text.startup._GLOBAL__sub_I_Date
                0x08004c0c        0xc Private_RTC.cpp.o
 .text._Z16Timer2_Interruptv
                0x08004c18       0x18 Private_Timer.cpp.o
                0x08004c18                Timer2_Interrupt()
 .text._Z16Timer3_Interruptv
                0x08004c30       0x24 Private_Timer.cpp.o
                0x08004c30                Timer3_Interrupt()
 .text._Z15Roll_Timer_Initv
                0x08004c54       0x34 Private_Timer.cpp.o
                0x08004c54                Roll_Timer_Init()
 .text._Z31Self_Check_Parameter_Timer_Initv
                0x08004c88       0x30 Private_Timer.cpp.o
                0x08004c88                Self_Check_Parameter_Timer_Init()
 .text._Z17Start_Roll_Timingv
                0x08004cb8       0x2c Private_Timer.cpp.o
                0x08004cb8                Start_Roll_Timing()
 .text._Z23Start_Self_Check_Timingv
                0x08004ce4       0x1c Private_Timer.cpp.o
                0x08004ce4                Start_Self_Check_Timing()
 .text._Z16Stop_Roll_Timingv
                0x08004d00        0xc Private_Timer.cpp.o
                0x08004d00                Stop_Roll_Timing()
 .text._Z22Stop_Self_Check_Timingv
                0x08004d0c        0xc Private_Timer.cpp.o
                0x08004d0c                Stop_Self_Check_Timing()
 .text._ZN8TypeConv10Dec_To_HexEh
                0x08004d18       0x12 public.cpp.o
                0x08004d18                TypeConv::Dec_To_Hex(unsigned char)
 *fill*         0x08004d2a        0x2 
 .text._Z9MyDelayMsj
                0x08004d2c       0x24 public.cpp.o
                0x08004d2c                MyDelayMs(unsigned int)
 .text._ZN7Receipt25Receipt_Random_Wait_ValueEPm
                0x08004d50       0x44 receipt.cpp.o
                0x08004d50                Receipt::Receipt_Random_Wait_Value(unsigned long*)
 .text._ZN7Receipt11Print_DebugEPhh
                0x08004d94       0x34 receipt.cpp.o
                0x08004d94                Receipt::Print_Debug(unsigned char*, unsigned char)
 .text._ZN7Receipt24Report_General_ParameterEv
                0x08004dc8      0x158 receipt.cpp.o
                0x08004dc8                Receipt::Report_General_Parameter()
 .text._ZN7Receipt24Request_Set_Group_NumberEv
                0x08004f20       0xdc receipt.cpp.o
                0x08004f20                Receipt::Request_Set_Group_Number()
 .text._ZN7Receipt29Request_Device_SN_and_ChannelEv
                0x08004ffc       0xdc receipt.cpp.o
                0x08004ffc                Receipt::Request_Device_SN_and_Channel()
 .text._ZN7Receipt25Working_Parameter_ReceiptEbh
                0x080050d8      0x1b4 receipt.cpp.o
                0x080050d8                Receipt::Working_Parameter_Receipt(bool, unsigned char)
 .text._ZN7Receipt15General_ReceiptEhh
                0x0800528c      0x14c receipt.cpp.o
                0x0800528c                Receipt::General_Receipt(unsigned char, unsigned char)
 .text._Z20Check_LoRa_Parameterv
                0x080053d8        0xc Security.cpp.o
                0x080053d8                Check_LoRa_Parameter()
 .text._Z21Check_Store_Parameterv
                0x080053e4       0xe8 Security.cpp.o
                0x080053e4                Check_Store_Parameter()
 .text._Z26Check_Store_Param_And_LoRav
                0x080054cc       0x50 Security.cpp.o
                0x080054cc                Check_Store_Param_And_LoRa()
 .text._Z7GetCrc8Phi
                0x0800551c       0x2e User_CRC8.cpp.o
                0x0800551c                GetCrc8(unsigned char*, int)
 .text._ZN7RTClockC2E11rtc_clk_srct
                0x0800554a       0x46 RTClock\RTClock.cpp.o
                0x0800554a                RTClock::RTClock(rtc_clk_src, unsigned short)
                0x0800554a                RTClock::RTClock(rtc_clk_src, unsigned short)
 .text._ZN7RTClockC2E11rtc_clk_src
                0x08005590       0x12 RTClock\RTClock.cpp.o
                0x08005590                RTClock::RTClock(rtc_clk_src)
                0x08005590                RTClock::RTClock(rtc_clk_src)
 *fill*         0x080055a2        0x2 
 .text.rtc_wait_finished
                0x080055a4       0x1c RTClock\utility\rtc_util.c.o
 .text.rtc_wait_sync
                0x080055c0       0x1c RTClock\utility\rtc_util.c.o
 .text.rtc_clear_sync
                0x080055dc       0x20 RTClock\utility\rtc_util.c.o
 .text.rtc_enter_config_mode
                0x080055fc       0x20 RTClock\utility\rtc_util.c.o
 .text.rtc_exit_config_mode
                0x0800561c       0x20 RTClock\utility\rtc_util.c.o
 .text.rtc_init
                0x0800563c       0xac RTClock\utility\rtc_util.c.o
                0x0800563c                rtc_init
 .text.__irq_rtc
                0x080056e8       0x48 RTClock\utility\rtc_util.c.o
                0x080056e8                __irq_rtc
 .text.__irq_rtcalarm
                0x08005730       0x1c RTClock\utility\rtc_util.c.o
                0x08005730                __irq_rtcalarm
 .text.rtc_set_prescaler_load
                0x0800574c       0x34 RTClock\utility\rtc_util.c.o
                0x0800574c                rtc_set_prescaler_load
 .text.startup._GLOBAL__sub_I_PIN_MAP
                0x08005780       0x74 C:\Users\Administrator\AppData\Local\Temp\VMBCore\arduino16x\a25b0c93d50495b56da79188cbb05a7a\variant\board.cpp.o
 .text._ZL18adc_default_configP7adc_dev
                0x080057f4       0x1c C:\Users\Administrator\AppData\Local\Temp\VMBCore\arduino16x\a25b0c93d50495b56da79188cbb05a7a\variant\boards.cpp.o
 .text._ZL20timer_default_configP9timer_dev
                0x08005810       0x9e C:\Users\Administrator\AppData\Local\Temp\VMBCore\arduino16x\a25b0c93d50495b56da79188cbb05a7a\variant\boards.cpp.o
 .text._Z9boardInitv
                0x080058ae        0x2 C:\Users\Administrator\AppData\Local\Temp\VMBCore\arduino16x\a25b0c93d50495b56da79188cbb05a7a\variant\boards.cpp.o
                0x080058ae                boardInit()
 .text._Z4initv
                0x080058b0       0xbc C:\Users\Administrator\AppData\Local\Temp\VMBCore\arduino16x\a25b0c93d50495b56da79188cbb05a7a\variant\boards.cpp.o
                0x080058b0                init()
 .text._ZN6wirish4priv15board_reset_pllEv
                0x0800596c        0x2 C:\Users\Administrator\AppData\Local\Temp\VMBCore\arduino16x\a25b0c93d50495b56da79188cbb05a7a\variant\boards_setup.cpp.o
                0x0800596c                wirish::priv::board_reset_pll()
 .text._ZN6wirish4priv28board_setup_clock_prescalersEv
                0x0800596e       0x2e C:\Users\Administrator\AppData\Local\Temp\VMBCore\arduino16x\a25b0c93d50495b56da79188cbb05a7a\variant\boards_setup.cpp.o
                0x0800596e                wirish::priv::board_setup_clock_prescalers()
 .text._ZN6wirish4priv16board_setup_gpioEv
                0x0800599c        0x4 C:\Users\Administrator\AppData\Local\Temp\VMBCore\arduino16x\a25b0c93d50495b56da79188cbb05a7a\variant\boards_setup.cpp.o
                0x0800599c                wirish::priv::board_setup_gpio()
 .text._ZN6wirish4priv15board_setup_usbEv
                0x080059a0        0x2 C:\Users\Administrator\AppData\Local\Temp\VMBCore\arduino16x\a25b0c93d50495b56da79188cbb05a7a\variant\boards_setup.cpp.o
                0x080059a0                wirish::priv::board_setup_usb()
 .text._ZN6wirish4priv11series_initEv
                0x080059a2        0x4 C:\Users\Administrator\AppData\Local\Temp\VMBCore\arduino16x\a25b0c93d50495b56da79188cbb05a7a\variant\boards_setup.cpp.o
                0x080059a2                wirish::priv::series_init()
 *fill*         0x080059a6        0x2 
 .text          0x080059a8       0x10 C:\Users\Administrator\AppData\Local\Temp\VMBCore\arduino16x\a25b0c93d50495b56da79188cbb05a7a\variant\start.S.o
                0x080059a8                __start__
 .text.start_c  0x080059b8       0x64 C:\Users\Administrator\AppData\Local\Temp\VMBCore\arduino16x\a25b0c93d50495b56da79188cbb05a7a\variant\start_c.c.o
                0x080059b8                start_c
 .text._exit    0x08005a1c        0x2 C:\Users\Administrator\AppData\Local\Temp\VMBCore\arduino16x\a25b0c93d50495b56da79188cbb05a7a\variant\syscalls.c.o
                0x08005a1c                _exit
 *fill*         0x08005a1e        0x2 
 .text          0x08005a20       0x60 C:\Users\Administrator\AppData\Local\Temp\VMBuilds\LoRa_Roll_Film\stm32_genericSTM32F103R\Release/core.a(exc.S.o)
                0x08005a20                __exc_nmi
                0x08005a24                __exc_hardfault
                0x08005a28                __exc_memmanage
                0x08005a2c                __exc_busfault
                0x08005a30                __exc_usagefault
 .text          0x08005a80        0x2 C:\Users\Administrator\AppData\Local\Temp\VMBuilds\LoRa_Roll_Film\stm32_genericSTM32F103R\Release/core.a(isrs.S.o)
                0x08005a80                __stm32reservedexception9
                0x08005a80                __irq_dma1_channel3
                0x08005a80                __irq_i2c2_er
                0x08005a80                __irq_i2c1_er
                0x08005a80                __irq_sdio
                0x08005a80                __irq_fsmc
                0x08005a80                __irq_usb_lp_can_rx0
                0x08005a80                __irq_dma1_channel6
                0x08005a80                __exc_debug_monitor
                0x08005a80                __irq_dma1_channel1
                0x08005a80                __irq_dma2_channel2
                0x08005a80                __exc_svc
                0x08005a80                __irq_dma1_channel4
                0x08005a80                __irq_dma1_channel7
                0x08005a80                __irq_can_rx1
                0x08005a80                __irq_spi2
                0x08005a80                __irq_can_sce
                0x08005a80                __irq_dma2_channel4_5
                0x08005a80                __irq_pvd
                0x08005a80                __irq_tamper
                0x08005a80                __default_handler
                0x08005a80                __irq_wwdg
                0x08005a80                __stm32reservedexception10
                0x08005a80                __irq_flash
                0x08005a80                __irq_i2c2_ev
                0x08005a80                __irq_dma1_channel2
                0x08005a80                __irq_dma1_channel5
                0x08005a80                __stm32reservedexception13
                0x08005a80                __irq_spi1
                0x08005a80                __stm32reservedexception7
                0x08005a80                __irq_usb_hp_can_tx
                0x08005a80                __irq_dma2_channel3
                0x08005a80                __irq_spi3
                0x08005a80                __stm32reservedexception8
                0x08005a80                __irq_dma2_channel1
                0x08005a80                __exc_pendsv
                0x08005a80                __irq_i2c1_ev
                0x08005a80                __irq_usbwakeup
                0x08005a80                __irq_rcc
 .text.adc_init
                0x08005a82       0x14 C:\Users\Administrator\AppData\Local\Temp\VMBuilds\LoRa_Roll_Film\stm32_genericSTM32F103R\Release/core.a(adc.c.o)
                0x08005a82                adc_init
 .text.adc_set_extsel
                0x08005a96       0x12 C:\Users\Administrator\AppData\Local\Temp\VMBuilds\LoRa_Roll_Film\stm32_genericSTM32F103R\Release/core.a(adc.c.o)
                0x08005a96                adc_set_extsel
 .text.adc_set_sample_rate
                0x08005aa8       0x30 C:\Users\Administrator\AppData\Local\Temp\VMBuilds\LoRa_Roll_Film\stm32_genericSTM32F103R\Release/core.a(adc.c.o)
                0x08005aa8                adc_set_sample_rate
 .text.adc_read
                0x08005ad8       0x20 C:\Users\Administrator\AppData\Local\Temp\VMBuilds\LoRa_Roll_Film\stm32_genericSTM32F103R\Release/core.a(adc.c.o)
                0x08005ad8                adc_read
 .text.__irq_adc
                0x08005af8       0x50 C:\Users\Administrator\AppData\Local\Temp\VMBuilds\LoRa_Roll_Film\stm32_genericSTM32F103R\Release/core.a(adc_f1.c.o)
                0x08005af8                __irq_adc
 .text.__irq_adc3
                0x08005b48       0x50 C:\Users\Administrator\AppData\Local\Temp\VMBuilds\LoRa_Roll_Film\stm32_genericSTM32F103R\Release/core.a(adc_f1.c.o)
                0x08005b48                __irq_adc3
 .text.adc_calibrate
                0x08005b98       0x24 C:\Users\Administrator\AppData\Local\Temp\VMBuilds\LoRa_Roll_Film\stm32_genericSTM32F103R\Release/core.a(adc_f1.c.o)
                0x08005b98                adc_calibrate
 .text.adc_set_prescaler
                0x08005bbc        0x8 C:\Users\Administrator\AppData\Local\Temp\VMBuilds\LoRa_Roll_Film\stm32_genericSTM32F103R\Release/core.a(adc_f1.c.o)
                0x08005bbc                adc_set_prescaler
 .text.adc_foreach
                0x08005bc4       0x24 C:\Users\Administrator\AppData\Local\Temp\VMBuilds\LoRa_Roll_Film\stm32_genericSTM32F103R\Release/core.a(adc_f1.c.o)
                0x08005bc4                adc_foreach
 .text.adc_enable_single_swstart
                0x08005be8       0x36 C:\Users\Administrator\AppData\Local\Temp\VMBuilds\LoRa_Roll_Film\stm32_genericSTM32F103R\Release/core.a(adc_f1.c.o)
                0x08005be8                adc_enable_single_swstart
 *fill*         0x08005c1e        0x2 
 .text.data_register
                0x08005c20       0x28 C:\Users\Administrator\AppData\Local\Temp\VMBuilds\LoRa_Roll_Film\stm32_genericSTM32F103R\Release/core.a(bkp_f1.c.o)
 .text.bkp_init
                0x08005c48       0x18 C:\Users\Administrator\AppData\Local\Temp\VMBuilds\LoRa_Roll_Film\stm32_genericSTM32F103R\Release/core.a(bkp_f1.c.o)
                0x08005c48                bkp_init
 .text.bkp_enable_writes
                0x08005c60        0xc C:\Users\Administrator\AppData\Local\Temp\VMBuilds\LoRa_Roll_Film\stm32_genericSTM32F103R\Release/core.a(bkp_f1.c.o)
                0x08005c60                bkp_enable_writes
 .text.bkp_disable_writes
                0x08005c6c        0xc C:\Users\Administrator\AppData\Local\Temp\VMBuilds\LoRa_Roll_Film\stm32_genericSTM32F103R\Release/core.a(bkp_f1.c.o)
                0x08005c6c                bkp_disable_writes
 .text.bkp_read
                0x08005c78        0xe C:\Users\Administrator\AppData\Local\Temp\VMBuilds\LoRa_Roll_Film\stm32_genericSTM32F103R\Release/core.a(bkp_f1.c.o)
                0x08005c78                bkp_read
 .text.bkp_write
                0x08005c86        0xe C:\Users\Administrator\AppData\Local\Temp\VMBuilds\LoRa_Roll_Film\stm32_genericSTM32F103R\Release/core.a(bkp_f1.c.o)
                0x08005c86                bkp_write
 .text.flash_set_latency
                0x08005c94       0x14 C:\Users\Administrator\AppData\Local\Temp\VMBuilds\LoRa_Roll_Film\stm32_genericSTM32F103R\Release/core.a(flash.c.o)
                0x08005c94                flash_set_latency
 .text.gpio_init_all
                0x08005ca8       0x4c C:\Users\Administrator\AppData\Local\Temp\VMBuilds\LoRa_Roll_Film\stm32_genericSTM32F103R\Release/core.a(gpio_f1.c.o)
                0x08005ca8                gpio_init_all
 .text.gpio_set_mode
                0x08005cf4       0x50 C:\Users\Administrator\AppData\Local\Temp\VMBuilds\LoRa_Roll_Film\stm32_genericSTM32F103R\Release/core.a(gpio_f1.c.o)
                0x08005cf4                gpio_set_mode
 .text.afio_init
                0x08005d44       0x12 C:\Users\Administrator\AppData\Local\Temp\VMBuilds\LoRa_Roll_Film\stm32_genericSTM32F103R\Release/core.a(gpio_f1.c.o)
                0x08005d44                afio_init
 *fill*         0x08005d56        0x2 
 .text.iwdg_init
                0x08005d58       0x20 C:\Users\Administrator\AppData\Local\Temp\VMBuilds\LoRa_Roll_Film\stm32_genericSTM32F103R\Release/core.a(iwdg.c.o)
                0x08005d58                iwdg_init
 .text.iwdg_feed
                0x08005d78       0x10 C:\Users\Administrator\AppData\Local\Temp\VMBuilds\LoRa_Roll_Film\stm32_genericSTM32F103R\Release/core.a(iwdg.c.o)
                0x08005d78                iwdg_feed
 .text.nvic_irq_set_priority
                0x08005d88       0x28 C:\Users\Administrator\AppData\Local\Temp\VMBuilds\LoRa_Roll_Film\stm32_genericSTM32F103R\Release/core.a(nvic.c.o)
                0x08005d88                nvic_irq_set_priority
 .text.nvic_init
                0x08005db0       0x30 C:\Users\Administrator\AppData\Local\Temp\VMBuilds\LoRa_Roll_Film\stm32_genericSTM32F103R\Release/core.a(nvic.c.o)
                0x08005db0                nvic_init
 .text.nvic_sys_reset
                0x08005de0       0x1c C:\Users\Administrator\AppData\Local\Temp\VMBuilds\LoRa_Roll_Film\stm32_genericSTM32F103R\Release/core.a(nvic.c.o)
                0x08005de0                nvic_sys_reset
 .text.rcc_dev_clk
                0x08005dfc        0xc C:\Users\Administrator\AppData\Local\Temp\VMBuilds\LoRa_Roll_Film\stm32_genericSTM32F103R\Release/core.a(rcc.c.o)
                0x08005dfc                rcc_dev_clk
 .text.rcc_switch_sysclk
                0x08005e08       0x20 C:\Users\Administrator\AppData\Local\Temp\VMBuilds\LoRa_Roll_Film\stm32_genericSTM32F103R\Release/core.a(rcc.c.o)
                0x08005e08                rcc_switch_sysclk
 .text.rcc_turn_on_clk
                0x08005e28       0x1a C:\Users\Administrator\AppData\Local\Temp\VMBuilds\LoRa_Roll_Film\stm32_genericSTM32F103R\Release/core.a(rcc.c.o)
                0x08005e28                rcc_turn_on_clk
 .text.rcc_turn_off_clk
                0x08005e42       0x1c C:\Users\Administrator\AppData\Local\Temp\VMBuilds\LoRa_Roll_Film\stm32_genericSTM32F103R\Release/core.a(rcc.c.o)
                0x08005e42                rcc_turn_off_clk
 .text.rcc_is_clk_on
                0x08005e5e       0x1e C:\Users\Administrator\AppData\Local\Temp\VMBuilds\LoRa_Roll_Film\stm32_genericSTM32F103R\Release/core.a(rcc.c.o)
                0x08005e5e                rcc_is_clk_on
 .text.rcc_is_clk_ready
                0x08005e7c       0x18 C:\Users\Administrator\AppData\Local\Temp\VMBuilds\LoRa_Roll_Film\stm32_genericSTM32F103R\Release/core.a(rcc.c.o)
                0x08005e7c                rcc_is_clk_ready
 .text.rcc_configure_pll
                0x08005e94       0x38 C:\Users\Administrator\AppData\Local\Temp\VMBuilds\LoRa_Roll_Film\stm32_genericSTM32F103R\Release/core.a(rcc_f1.c.o)
                0x08005e94                rcc_configure_pll
 .text.rcc_clk_enable
                0x08005ecc       0x30 C:\Users\Administrator\AppData\Local\Temp\VMBuilds\LoRa_Roll_Film\stm32_genericSTM32F103R\Release/core.a(rcc_f1.c.o)
                0x08005ecc                rcc_clk_enable
 .text.rcc_reset_dev
                0x08005efc       0x34 C:\Users\Administrator\AppData\Local\Temp\VMBuilds\LoRa_Roll_Film\stm32_genericSTM32F103R\Release/core.a(rcc_f1.c.o)
                0x08005efc                rcc_reset_dev
 .text.rcc_set_prescaler
                0x08005f30       0x20 C:\Users\Administrator\AppData\Local\Temp\VMBuilds\LoRa_Roll_Film\stm32_genericSTM32F103R\Release/core.a(rcc_f1.c.o)
                0x08005f30                rcc_set_prescaler
 .text.rcc_clk_disable
                0x08005f50       0x30 C:\Users\Administrator\AppData\Local\Temp\VMBuilds\LoRa_Roll_Film\stm32_genericSTM32F103R\Release/core.a(rcc_f1.c.o)
                0x08005f50                rcc_clk_disable
 .text.systick_init
                0x08005f80       0x10 C:\Users\Administrator\AppData\Local\Temp\VMBuilds\LoRa_Roll_Film\stm32_genericSTM32F103R\Release/core.a(systick.c.o)
                0x08005f80                systick_init
 .text.__exc_systick
                0x08005f90       0x1c C:\Users\Administrator\AppData\Local\Temp\VMBuilds\LoRa_Roll_Film\stm32_genericSTM32F103R\Release/core.a(systick.c.o)
                0x08005f90                __exc_systick
 .text.timer_oc_set_mode
                0x08005fac       0x3a C:\Users\Administrator\AppData\Local\Temp\VMBuilds\LoRa_Roll_Film\stm32_genericSTM32F103R\Release/core.a(timer.c.o)
 *fill*         0x08005fe6        0x2 
 .text.timer_foreach
                0x08005fe8       0x48 C:\Users\Administrator\AppData\Local\Temp\VMBuilds\LoRa_Roll_Film\stm32_genericSTM32F103R\Release/core.a(timer.c.o)
                0x08005fe8                timer_foreach
 .text.timer_init
                0x08006030       0x14 C:\Users\Administrator\AppData\Local\Temp\VMBuilds\LoRa_Roll_Film\stm32_genericSTM32F103R\Release/core.a(timer.c.o)
                0x08006030                timer_init
 .text.timer_has_cc_channel
                0x08006044       0x30 C:\Users\Administrator\AppData\Local\Temp\VMBuilds\LoRa_Roll_Film\stm32_genericSTM32F103R\Release/core.a(timer.c.o)
                0x08006044                timer_has_cc_channel
 .text.timer_attach_interrupt
                0x08006074       0xd4 C:\Users\Administrator\AppData\Local\Temp\VMBuilds\LoRa_Roll_Film\stm32_genericSTM32F103R\Release/core.a(timer.c.o)
                0x08006074                timer_attach_interrupt
 .text.timer_detach_interrupt
                0x08006148       0x1e C:\Users\Administrator\AppData\Local\Temp\VMBuilds\LoRa_Roll_Film\stm32_genericSTM32F103R\Release/core.a(timer.c.o)
                0x08006148                timer_detach_interrupt
 *fill*         0x08006166        0x2 
 .text.timer_set_mode
                0x08006168       0xb4 C:\Users\Administrator\AppData\Local\Temp\VMBuilds\LoRa_Roll_Film\stm32_genericSTM32F103R\Release/core.a(timer.c.o)
                0x08006168                timer_set_mode
 .text.__irq_tim1_brk
                0x0800621c       0x24 C:\Users\Administrator\AppData\Local\Temp\VMBuilds\LoRa_Roll_Film\stm32_genericSTM32F103R\Release/core.a(timer.c.o)
                0x0800621c                __irq_tim1_brk
 .text.__irq_tim1_up
                0x08006240       0x24 C:\Users\Administrator\AppData\Local\Temp\VMBuilds\LoRa_Roll_Film\stm32_genericSTM32F103R\Release/core.a(timer.c.o)
                0x08006240                __irq_tim1_up
 .text.__irq_tim1_trg_com
                0x08006264       0x38 C:\Users\Administrator\AppData\Local\Temp\VMBuilds\LoRa_Roll_Film\stm32_genericSTM32F103R\Release/core.a(timer.c.o)
                0x08006264                __irq_tim1_trg_com
 .text.__irq_tim1_cc
                0x0800629c       0x54 C:\Users\Administrator\AppData\Local\Temp\VMBuilds\LoRa_Roll_Film\stm32_genericSTM32F103R\Release/core.a(timer.c.o)
                0x0800629c                __irq_tim1_cc
 .text.__irq_tim2
                0x080062f0       0x70 C:\Users\Administrator\AppData\Local\Temp\VMBuilds\LoRa_Roll_Film\stm32_genericSTM32F103R\Release/core.a(timer.c.o)
                0x080062f0                __irq_tim2
 .text.__irq_tim3
                0x08006360       0x70 C:\Users\Administrator\AppData\Local\Temp\VMBuilds\LoRa_Roll_Film\stm32_genericSTM32F103R\Release/core.a(timer.c.o)
                0x08006360                __irq_tim3
 .text.__irq_tim4
                0x080063d0       0x70 C:\Users\Administrator\AppData\Local\Temp\VMBuilds\LoRa_Roll_Film\stm32_genericSTM32F103R\Release/core.a(timer.c.o)
                0x080063d0                __irq_tim4
 .text.__irq_tim5
                0x08006440       0x70 C:\Users\Administrator\AppData\Local\Temp\VMBuilds\LoRa_Roll_Film\stm32_genericSTM32F103R\Release/core.a(timer.c.o)
                0x08006440                __irq_tim5
 .text.__irq_tim6
                0x080064b0       0x24 C:\Users\Administrator\AppData\Local\Temp\VMBuilds\LoRa_Roll_Film\stm32_genericSTM32F103R\Release/core.a(timer.c.o)
                0x080064b0                __irq_tim6
 .text.__irq_tim7
                0x080064d4       0x24 C:\Users\Administrator\AppData\Local\Temp\VMBuilds\LoRa_Roll_Film\stm32_genericSTM32F103R\Release/core.a(timer.c.o)
                0x080064d4                __irq_tim7
 .text.__irq_tim8_brk
                0x080064f8       0x24 C:\Users\Administrator\AppData\Local\Temp\VMBuilds\LoRa_Roll_Film\stm32_genericSTM32F103R\Release/core.a(timer.c.o)
                0x080064f8                __irq_tim8_brk
 .text.__irq_tim8_up
                0x0800651c       0x24 C:\Users\Administrator\AppData\Local\Temp\VMBuilds\LoRa_Roll_Film\stm32_genericSTM32F103R\Release/core.a(timer.c.o)
                0x0800651c                __irq_tim8_up
 .text.__irq_tim8_trg_com
                0x08006540       0x38 C:\Users\Administrator\AppData\Local\Temp\VMBuilds\LoRa_Roll_Film\stm32_genericSTM32F103R\Release/core.a(timer.c.o)
                0x08006540                __irq_tim8_trg_com
 .text.__irq_tim8_cc
                0x08006578       0x54 C:\Users\Administrator\AppData\Local\Temp\VMBuilds\LoRa_Roll_Film\stm32_genericSTM32F103R\Release/core.a(timer.c.o)
                0x08006578                __irq_tim8_cc
 .text.rb_remove
                0x080065cc       0x24 C:\Users\Administrator\AppData\Local\Temp\VMBuilds\LoRa_Roll_Film\stm32_genericSTM32F103R\Release/core.a(usart_f1.c.o)
 .text.rb_push_insert
                0x080065f0       0x52 C:\Users\Administrator\AppData\Local\Temp\VMBuilds\LoRa_Roll_Film\stm32_genericSTM32F103R\Release/core.a(usart_f1.c.o)
 .text.usart_config_gpios_async
                0x08006642       0x4a C:\Users\Administrator\AppData\Local\Temp\VMBuilds\LoRa_Roll_Film\stm32_genericSTM32F103R\Release/core.a(usart_f1.c.o)
                0x08006642                usart_config_gpios_async
 .text.usart_set_baud_rate
                0x0800668c       0x3c C:\Users\Administrator\AppData\Local\Temp\VMBuilds\LoRa_Roll_Film\stm32_genericSTM32F103R\Release/core.a(usart_f1.c.o)
                0x0800668c                usart_set_baud_rate
 .text.__irq_usart1
                0x080066c8       0x54 C:\Users\Administrator\AppData\Local\Temp\VMBuilds\LoRa_Roll_Film\stm32_genericSTM32F103R\Release/core.a(usart_f1.c.o)
                0x080066c8                __irq_usart1
 .text.__irq_usart2
                0x0800671c       0x54 C:\Users\Administrator\AppData\Local\Temp\VMBuilds\LoRa_Roll_Film\stm32_genericSTM32F103R\Release/core.a(usart_f1.c.o)
                0x0800671c                __irq_usart2
 .text.__irq_usart3
                0x08006770       0x54 C:\Users\Administrator\AppData\Local\Temp\VMBuilds\LoRa_Roll_Film\stm32_genericSTM32F103R\Release/core.a(usart_f1.c.o)
                0x08006770                __irq_usart3
 .text.__irq_uart4
                0x080067c4       0x54 C:\Users\Administrator\AppData\Local\Temp\VMBuilds\LoRa_Roll_Film\stm32_genericSTM32F103R\Release/core.a(usart_f1.c.o)
                0x080067c4                __irq_uart4
 .text.__irq_uart5
                0x08006818       0x54 C:\Users\Administrator\AppData\Local\Temp\VMBuilds\LoRa_Roll_Film\stm32_genericSTM32F103R\Release/core.a(usart_f1.c.o)
                0x08006818                __irq_uart5
 .text._usart_clock_freq
                0x0800686c       0x24 C:\Users\Administrator\AppData\Local\Temp\VMBuilds\LoRa_Roll_Film\stm32_genericSTM32F103R\Release/core.a(usart_private.c.o)
                0x0800686c                _usart_clock_freq
 .text.usart_putc
                0x08006890       0x1c C:\Users\Administrator\AppData\Local\Temp\VMBuilds\LoRa_Roll_Film\stm32_genericSTM32F103R\Release/core.a(util.c.o)
 .text.usart_putstr
                0x080068ac       0x16 C:\Users\Administrator\AppData\Local\Temp\VMBuilds\LoRa_Roll_Film\stm32_genericSTM32F103R\Release/core.a(util.c.o)
 *fill*         0x080068c2        0x2 
 .text.throb    0x080068c4       0x4c C:\Users\Administrator\AppData\Local\Temp\VMBuilds\LoRa_Roll_Film\stm32_genericSTM32F103R\Release/core.a(util.c.o)
                0x080068c4                throb
 .text.__error  0x08006910       0x14 C:\Users\Administrator\AppData\Local\Temp\VMBuilds\LoRa_Roll_Film\stm32_genericSTM32F103R\Release/core.a(util.c.o)
                0x08006910                __error
 .text._fail    0x08006924       0x64 C:\Users\Administrator\AppData\Local\Temp\VMBuilds\LoRa_Roll_Film\stm32_genericSTM32F103R\Release/core.a(util.c.o)
                0x08006924                _fail
 .text._Z15attachInterrupthPFvvE17ExtIntTriggerMode
                0x08006988       0x3c C:\Users\Administrator\AppData\Local\Temp\VMBuilds\LoRa_Roll_Film\stm32_genericSTM32F103R\Release/core.a(ext_interrupts.cpp.o)
                0x08006988                attachInterrupt(unsigned char, void (*)(), ExtIntTriggerMode)
 .text._Z15detachInterrupth
                0x080069c4       0x18 C:\Users\Administrator\AppData\Local\Temp\VMBuilds\LoRa_Roll_Film\stm32_genericSTM32F103R\Release/core.a(ext_interrupts.cpp.o)
                0x080069c4                detachInterrupt(unsigned char)
 .text._ZN14HardwareSerial4readEv
                0x080069dc       0x4e C:\Users\Administrator\AppData\Local\Temp\VMBuilds\LoRa_Roll_Film\stm32_genericSTM32F103R\Release/core.a(HardwareSerial.cpp.o)
                0x080069dc                HardwareSerial::read()
 .text._ZN14HardwareSerial4peekEv
                0x08006a2a       0x22 C:\Users\Administrator\AppData\Local\Temp\VMBuilds\LoRa_Roll_Film\stm32_genericSTM32F103R\Release/core.a(HardwareSerial.cpp.o)
                0x08006a2a                HardwareSerial::peek()
 .text._ZN14HardwareSerial5flushEv
                0x08006a4c       0x1a C:\Users\Administrator\AppData\Local\Temp\VMBuilds\LoRa_Roll_Film\stm32_genericSTM32F103R\Release/core.a(HardwareSerial.cpp.o)
                0x08006a4c                HardwareSerial::flush()
 .text._ZN14HardwareSerial5writeEh
                0x08006a66       0x1e C:\Users\Administrator\AppData\Local\Temp\VMBuilds\LoRa_Roll_Film\stm32_genericSTM32F103R\Release/core.a(HardwareSerial.cpp.o)
                0x08006a66                HardwareSerial::write(unsigned char)
 .text._ZN14HardwareSerial9availableEv
                0x08006a84       0x26 C:\Users\Administrator\AppData\Local\Temp\VMBuilds\LoRa_Roll_Film\stm32_genericSTM32F103R\Release/core.a(HardwareSerial.cpp.o)
                0x08006a84                HardwareSerial::available()
 *fill*         0x08006aaa        0x2 
 .text._ZN14HardwareSerialC2EP9usart_devhh
                0x08006aac       0x1c C:\Users\Administrator\AppData\Local\Temp\VMBuilds\LoRa_Roll_Film\stm32_genericSTM32F103R\Release/core.a(HardwareSerial.cpp.o)
                0x08006aac                HardwareSerial::HardwareSerial(usart_dev*, unsigned char, unsigned char)
                0x08006aac                HardwareSerial::HardwareSerial(usart_dev*, unsigned char, unsigned char)
 .text._ZN14HardwareSerial5beginEmh
                0x08006ac8       0x78 C:\Users\Administrator\AppData\Local\Temp\VMBuilds\LoRa_Roll_Film\stm32_genericSTM32F103R\Release/core.a(HardwareSerial.cpp.o)
                0x08006ac8                HardwareSerial::begin(unsigned long, unsigned char)
 .text._ZN14HardwareSerial5beginEm
                0x08006b40        0x6 C:\Users\Administrator\AppData\Local\Temp\VMBuilds\LoRa_Roll_Film\stm32_genericSTM32F103R\Release/core.a(HardwareSerial.cpp.o)
                0x08006b40                HardwareSerial::begin(unsigned long)
 .text._ZN14HardwareSerial3endEv
                0x08006b46        0x6 C:\Users\Administrator\AppData\Local\Temp\VMBuilds\LoRa_Roll_Film\stm32_genericSTM32F103R\Release/core.a(HardwareSerial.cpp.o)
                0x08006b46                HardwareSerial::end()
 .text.set_this_dev
                0x08006b4c       0x1c C:\Users\Administrator\AppData\Local\Temp\VMBuilds\LoRa_Roll_Film\stm32_genericSTM32F103R\Release/core.a(HardwareTimer.cpp.o)
 .text._ZN13HardwareTimerC2Eh
                0x08006b68       0x2c C:\Users\Administrator\AppData\Local\Temp\VMBuilds\LoRa_Roll_Film\stm32_genericSTM32F103R\Release/core.a(HardwareTimer.cpp.o)
                0x08006b68                HardwareTimer::HardwareTimer(unsigned char)
                0x08006b68                HardwareTimer::HardwareTimer(unsigned char)
 .text._ZN13HardwareTimer5pauseEv
                0x08006b94       0x10 C:\Users\Administrator\AppData\Local\Temp\VMBuilds\LoRa_Roll_Film\stm32_genericSTM32F103R\Release/core.a(HardwareTimer.cpp.o)
                0x08006b94                HardwareTimer::pause()
 .text._ZN13HardwareTimer6resumeEv
                0x08006ba4       0x10 C:\Users\Administrator\AppData\Local\Temp\VMBuilds\LoRa_Roll_Film\stm32_genericSTM32F103R\Release/core.a(HardwareTimer.cpp.o)
                0x08006ba4                HardwareTimer::resume()
 .text._ZN13HardwareTimer17setPrescaleFactorEm
                0x08006bb4        0xc C:\Users\Administrator\AppData\Local\Temp\VMBuilds\LoRa_Roll_Film\stm32_genericSTM32F103R\Release/core.a(HardwareTimer.cpp.o)
                0x08006bb4                HardwareTimer::setPrescaleFactor(unsigned long)
 .text._ZN13HardwareTimer8setCountEt
                0x08006bc0       0x12 C:\Users\Administrator\AppData\Local\Temp\VMBuilds\LoRa_Roll_Film\stm32_genericSTM32F103R\Release/core.a(HardwareTimer.cpp.o)
                0x08006bc0                HardwareTimer::setCount(unsigned short)
 .text._ZN13HardwareTimer9setPeriodEm
                0x08006bd2       0x3e C:\Users\Administrator\AppData\Local\Temp\VMBuilds\LoRa_Roll_Film\stm32_genericSTM32F103R\Release/core.a(HardwareTimer.cpp.o)
                0x08006bd2                HardwareTimer::setPeriod(unsigned long)
 .text._ZN13HardwareTimer15attachInterruptEiPFvvE
                0x08006c10        0x8 C:\Users\Administrator\AppData\Local\Temp\VMBuilds\LoRa_Roll_Film\stm32_genericSTM32F103R\Release/core.a(HardwareTimer.cpp.o)
                0x08006c10                HardwareTimer::attachInterrupt(int, void (*)())
 .text.startup._GLOBAL__sub_I__ZN13HardwareTimerC2Eh
                0x08006c18       0x68 C:\Users\Administrator\AppData\Local\Temp\VMBuilds\LoRa_Roll_Film\stm32_genericSTM32F103R\Release/core.a(HardwareTimer.cpp.o)
 .text.startup._Z7premainv
                0x08006c80        0x4 C:\Users\Administrator\AppData\Local\Temp\VMBuilds\LoRa_Roll_Film\stm32_genericSTM32F103R\Release/core.a(main.cpp.o)
                0x08006c80                premain()
 .text.startup.main
                0x08006c84        0xc C:\Users\Administrator\AppData\Local\Temp\VMBuilds\LoRa_Roll_Film\stm32_genericSTM32F103R\Release/core.a(main.cpp.o)
                0x08006c84                main
 .text._ZN5Print5writeEPKc
                0x08006c90       0x1c C:\Users\Administrator\AppData\Local\Temp\VMBuilds\LoRa_Roll_Film\stm32_genericSTM32F103R\Release/core.a(Print.cpp.o)
                0x08006c90                Print::write(char const*)
 .text._ZN5Print5writeEPKvm
                0x08006cac       0x20 C:\Users\Administrator\AppData\Local\Temp\VMBuilds\LoRa_Roll_Film\stm32_genericSTM32F103R\Release/core.a(Print.cpp.o)
                0x08006cac                Print::write(void const*, unsigned long)
 .text._ZN5Print5printEc
                0x08006ccc        0xa C:\Users\Administrator\AppData\Local\Temp\VMBuilds\LoRa_Roll_Film\stm32_genericSTM32F103R\Release/core.a(Print.cpp.o)
                0x08006ccc                Print::print(char)
 .text._ZN5Print5printEPKc
                0x08006cd6        0xa C:\Users\Administrator\AppData\Local\Temp\VMBuilds\LoRa_Roll_Film\stm32_genericSTM32F103R\Release/core.a(Print.cpp.o)
                0x08006cd6                Print::print(char const*)
 .text._ZN5Print7printlnEv
                0x08006ce0       0x18 C:\Users\Administrator\AppData\Local\Temp\VMBuilds\LoRa_Roll_Film\stm32_genericSTM32F103R\Release/core.a(Print.cpp.o)
                0x08006ce0                Print::println()
 .text._ZN5Print7printlnEPKc
                0x08006cf8       0x14 C:\Users\Administrator\AppData\Local\Temp\VMBuilds\LoRa_Roll_Film\stm32_genericSTM32F103R\Release/core.a(Print.cpp.o)
                0x08006cf8                Print::println(char const*)
 .text._ZN5Print11printNumberEyh
                0x08006d0c       0x84 C:\Users\Administrator\AppData\Local\Temp\VMBuilds\LoRa_Roll_Film\stm32_genericSTM32F103R\Release/core.a(Print.cpp.o)
                0x08006d0c                Print::printNumber(unsigned long long, unsigned char)
 .text._ZN5Print5printExi
                0x08006d90       0x40 C:\Users\Administrator\AppData\Local\Temp\VMBuilds\LoRa_Roll_Film\stm32_genericSTM32F103R\Release/core.a(Print.cpp.o)
                0x08006d90                Print::print(long long, int)
 .text._ZN5Print5printEii
                0x08006dd0       0x12 C:\Users\Administrator\AppData\Local\Temp\VMBuilds\LoRa_Roll_Film\stm32_genericSTM32F103R\Release/core.a(Print.cpp.o)
                0x08006dd0                Print::print(int, int)
 .text._ZN5Print5printEyi
                0x08006de2       0x1c C:\Users\Administrator\AppData\Local\Temp\VMBuilds\LoRa_Roll_Film\stm32_genericSTM32F103R\Release/core.a(Print.cpp.o)
                0x08006de2                Print::print(unsigned long long, int)
 .text._ZN5Print5printEhi
                0x08006dfe       0x12 C:\Users\Administrator\AppData\Local\Temp\VMBuilds\LoRa_Roll_Film\stm32_genericSTM32F103R\Release/core.a(Print.cpp.o)
                0x08006dfe                Print::print(unsigned char, int)
 .text._ZN5Print7printlnEhi
                0x08006e10       0x14 C:\Users\Administrator\AppData\Local\Temp\VMBuilds\LoRa_Roll_Film\stm32_genericSTM32F103R\Release/core.a(Print.cpp.o)
                0x08006e10                Print::println(unsigned char, int)
 .text._ZN5Print5printEji
                0x08006e24       0x12 C:\Users\Administrator\AppData\Local\Temp\VMBuilds\LoRa_Roll_Film\stm32_genericSTM32F103R\Release/core.a(Print.cpp.o)
                0x08006e24                Print::print(unsigned int, int)
 .text._ZN5Print7printlnEji
                0x08006e36       0x14 C:\Users\Administrator\AppData\Local\Temp\VMBuilds\LoRa_Roll_Film\stm32_genericSTM32F103R\Release/core.a(Print.cpp.o)
                0x08006e36                Print::println(unsigned int, int)
 *fill*         0x08006e4a        0x6 
 .text._ZN5Print10printFloatEdh
                0x08006e50      0x158 C:\Users\Administrator\AppData\Local\Temp\VMBuilds\LoRa_Roll_Film\stm32_genericSTM32F103R\Release/core.a(Print.cpp.o)
                0x08006e50                Print::printFloat(double, unsigned char)
 .text._ZN5Print7printlnEdi
                0x08006fa8       0x1c C:\Users\Administrator\AppData\Local\Temp\VMBuilds\LoRa_Roll_Film\stm32_genericSTM32F103R\Release/core.a(Print.cpp.o)
                0x08006fa8                Print::println(double, int)
 .text._Z10analogReadh
                0x08006fc4       0x1c C:\Users\Administrator\AppData\Local\Temp\VMBuilds\LoRa_Roll_Film\stm32_genericSTM32F103R\Release/core.a(wirish_analog.cpp.o)
                0x08006fc4                analogRead(unsigned char)
 .text._Z11digitalReadh
                0x08006fe0       0x2c C:\Users\Administrator\AppData\Local\Temp\VMBuilds\LoRa_Roll_Film\stm32_genericSTM32F103R\Release/core.a(wirish_digital.cpp.o)
                0x08006fe0                digitalRead(unsigned char)
 .text._Z12digitalWritehh
                0x0800700c       0x2c C:\Users\Administrator\AppData\Local\Temp\VMBuilds\LoRa_Roll_Film\stm32_genericSTM32F103R\Release/core.a(wirish_digital.cpp.o)
                0x0800700c                digitalWrite(unsigned char, unsigned char)
 .text._Z6randoml
                0x08007038       0x16 C:\Users\Administrator\AppData\Local\Temp\VMBuilds\LoRa_Roll_Film\stm32_genericSTM32F103R\Release/core.a(wirish_math.cpp.o)
                0x08007038                random(long)
 .text._Z6randomll
                0x0800704e       0x14 C:\Users\Administrator\AppData\Local\Temp\VMBuilds\LoRa_Roll_Film\stm32_genericSTM32F103R\Release/core.a(wirish_math.cpp.o)
                0x0800704e                random(long, long)
 *fill*         0x08007062        0x2 
 .text._Z5delaym
                0x08007064       0x1c C:\Users\Administrator\AppData\Local\Temp\VMBuilds\LoRa_Roll_Film\stm32_genericSTM32F103R\Release/core.a(wirish_time.cpp.o)
                0x08007064                delay(unsigned long)
 .text._Z17delayMicrosecondsm
                0x08007080        0xe C:\Users\Administrator\AppData\Local\Temp\VMBuilds\LoRa_Roll_Film\stm32_genericSTM32F103R\Release/core.a(wirish_time.cpp.o)
                0x08007080                delayMicroseconds(unsigned long)
 *fill*         0x0800708e        0x2 
 .text._Z7pinModeh13WiringPinMode
                0x08007090       0x84 C:\Users\Administrator\AppData\Local\Temp\VMBuilds\LoRa_Roll_Film\stm32_genericSTM32F103R\Release/core.a(wirish_digital_f1.cpp.o)
                0x08007090                pinMode(unsigned char, WiringPinMode)
 .text.__empty  0x08007114        0x2 C:\Users\Administrator\AppData\Local\Temp\VMBuilds\LoRa_Roll_Film\stm32_genericSTM32F103R\Release/core.a(hooks.c.o)
                0x08007114                yield
 *fill*         0x08007116        0x2 
 .text.exti_attach_callback
                0x08007118       0xac C:\Users\Administrator\AppData\Local\Temp\VMBuilds\LoRa_Roll_Film\stm32_genericSTM32F103R\Release/core.a(exti.c.o)
                0x08007118                exti_attach_callback
 .text.exti_attach_interrupt
                0x080071c4       0x10 C:\Users\Administrator\AppData\Local\Temp\VMBuilds\LoRa_Roll_Film\stm32_genericSTM32F103R\Release/core.a(exti.c.o)
                0x080071c4                exti_attach_interrupt
 .text.exti_detach_interrupt
                0x080071d4       0x28 C:\Users\Administrator\AppData\Local\Temp\VMBuilds\LoRa_Roll_Film\stm32_genericSTM32F103R\Release/core.a(exti.c.o)
                0x080071d4                exti_detach_interrupt
 .text.exti_do_select
                0x080071fc       0x1a C:\Users\Administrator\AppData\Local\Temp\VMBuilds\LoRa_Roll_Film\stm32_genericSTM32F103R\Release/core.a(exti.c.o)
                0x080071fc                exti_do_select
 *fill*         0x08007216        0x2 
 .text.__irq_exti0
                0x08007218       0x20 C:\Users\Administrator\AppData\Local\Temp\VMBuilds\LoRa_Roll_Film\stm32_genericSTM32F103R\Release/core.a(exti.c.o)
                0x08007218                __irq_exti0
 .text.__irq_exti1
                0x08007238       0x20 C:\Users\Administrator\AppData\Local\Temp\VMBuilds\LoRa_Roll_Film\stm32_genericSTM32F103R\Release/core.a(exti.c.o)
                0x08007238                __irq_exti1
 .text.__irq_exti2
                0x08007258       0x20 C:\Users\Administrator\AppData\Local\Temp\VMBuilds\LoRa_Roll_Film\stm32_genericSTM32F103R\Release/core.a(exti.c.o)
                0x08007258                __irq_exti2
 .text.__irq_exti3
                0x08007278       0x20 C:\Users\Administrator\AppData\Local\Temp\VMBuilds\LoRa_Roll_Film\stm32_genericSTM32F103R\Release/core.a(exti.c.o)
                0x08007278                __irq_exti3
 .text.__irq_exti4
                0x08007298       0x20 C:\Users\Administrator\AppData\Local\Temp\VMBuilds\LoRa_Roll_Film\stm32_genericSTM32F103R\Release/core.a(exti.c.o)
                0x08007298                __irq_exti4
 .text.__irq_exti9_5
                0x080072b8       0x44 C:\Users\Administrator\AppData\Local\Temp\VMBuilds\LoRa_Roll_Film\stm32_genericSTM32F103R\Release/core.a(exti.c.o)
                0x080072b8                __irq_exti9_5
 .text.__irq_exti15_10
                0x080072fc       0x44 C:\Users\Administrator\AppData\Local\Temp\VMBuilds\LoRa_Roll_Film\stm32_genericSTM32F103R\Release/core.a(exti.c.o)
                0x080072fc                __irq_exti15_10
 .text.exti_select
                0x08007340       0x18 C:\Users\Administrator\AppData\Local\Temp\VMBuilds\LoRa_Roll_Film\stm32_genericSTM32F103R\Release/core.a(exti_f1.c.o)
                0x08007340                exti_select
 .text.gpio_init
                0x08007358       0x14 C:\Users\Administrator\AppData\Local\Temp\VMBuilds\LoRa_Roll_Film\stm32_genericSTM32F103R\Release/core.a(gpio.c.o)
                0x08007358                gpio_init
 .text.usart_init
                0x0800736c       0x54 C:\Users\Administrator\AppData\Local\Temp\VMBuilds\LoRa_Roll_Film\stm32_genericSTM32F103R\Release/core.a(usart.c.o)
                0x0800736c                usart_init
 .text.usart_enable
                0x080073c0       0x14 C:\Users\Administrator\AppData\Local\Temp\VMBuilds\LoRa_Roll_Film\stm32_genericSTM32F103R\Release/core.a(usart.c.o)
                0x080073c0                usart_enable
 .text.usart_disable
                0x080073d4       0x38 C:\Users\Administrator\AppData\Local\Temp\VMBuilds\LoRa_Roll_Film\stm32_genericSTM32F103R\Release/core.a(usart.c.o)
                0x080073d4                usart_disable
 .text.usart_tx
                0x0800740c       0x9c C:\Users\Administrator\AppData\Local\Temp\VMBuilds\LoRa_Roll_Film\stm32_genericSTM32F103R\Release/core.a(usart.c.o)
                0x0800740c                usart_tx
 .text.usart_putudec
                0x080074a8       0x44 C:\Users\Administrator\AppData\Local\Temp\VMBuilds\LoRa_Roll_Film\stm32_genericSTM32F103R\Release/core.a(usart.c.o)
                0x080074a8                usart_putudec
 .text          0x080074ec      0x370 c:/users/administrator/appdata/local/arduino15/packages/arduino/tools/arm-none-eabi-gcc/4.8.3-2014q1/bin/../lib/gcc/arm-none-eabi/4.8.3/armv7-m\libgcc.a(_arm_addsubdf3.o)
                0x080074ec                __aeabi_drsub
                0x080074f4                __aeabi_dsub
                0x080074f4                __subdf3
                0x080074f8                __aeabi_dadd
                0x080074f8                __adddf3
                0x08007770                __floatunsidf
                0x08007770                __aeabi_ui2d
                0x08007790                __floatsidf
                0x08007790                __aeabi_i2d
                0x080077b4                __aeabi_f2d
                0x080077b4                __extendsfdf2
                0x080077f0                __floatundidf
                0x080077f0                __aeabi_ul2d
                0x08007800                __floatdidf
                0x08007800                __aeabi_l2d
 .text          0x0800785c      0x424 c:/users/administrator/appdata/local/arduino15/packages/arduino/tools/arm-none-eabi-gcc/4.8.3-2014q1/bin/../lib/gcc/arm-none-eabi/4.8.3/armv7-m\libgcc.a(_arm_muldivdf3.o)
                0x0800785c                __aeabi_dmul
                0x0800785c                __muldf3
                0x08007ab0                __divdf3
                0x08007ab0                __aeabi_ddiv
 .text          0x08007c80      0x110 c:/users/administrator/appdata/local/arduino15/packages/arduino/tools/arm-none-eabi-gcc/4.8.3-2014q1/bin/../lib/gcc/arm-none-eabi/4.8.3/armv7-m\libgcc.a(_arm_cmpdf2.o)
                0x08007c80                __gtdf2
                0x08007c80                __gedf2
                0x08007c88                __ltdf2
                0x08007c88                __ledf2
                0x08007c90                __nedf2
                0x08007c90                __eqdf2
                0x08007c90                __cmpdf2
                0x08007d0c                __aeabi_cdrcmple
                0x08007d1c                __aeabi_cdcmpeq
                0x08007d1c                __aeabi_cdcmple
                0x08007d2c                __aeabi_dcmpeq
                0x08007d40                __aeabi_dcmplt
                0x08007d54                __aeabi_dcmple
                0x08007d68                __aeabi_dcmpge
                0x08007d7c                __aeabi_dcmpgt
 .text          0x08007d90       0x50 c:/users/administrator/appdata/local/arduino15/packages/arduino/tools/arm-none-eabi-gcc/4.8.3-2014q1/bin/../lib/gcc/arm-none-eabi/4.8.3/armv7-m\libgcc.a(_arm_fixdfsi.o)
                0x08007d90                __aeabi_d2iz
                0x08007d90                __fixdfsi
 .text          0x08007de0       0x40 c:/users/administrator/appdata/local/arduino15/packages/arduino/tools/arm-none-eabi-gcc/4.8.3-2014q1/bin/../lib/gcc/arm-none-eabi/4.8.3/armv7-m\libgcc.a(_arm_fixunsdfsi.o)
                0x08007de0                __aeabi_d2uiz
                0x08007de0                __fixunsdfsi
 .text          0x08007e20       0xa0 c:/users/administrator/appdata/local/arduino15/packages/arduino/tools/arm-none-eabi-gcc/4.8.3-2014q1/bin/../lib/gcc/arm-none-eabi/4.8.3/armv7-m\libgcc.a(_arm_truncdfsf2.o)
                0x08007e20                __truncdfsf2
                0x08007e20                __aeabi_d2f
 .text          0x08007ec0      0x21c c:/users/administrator/appdata/local/arduino15/packages/arduino/tools/arm-none-eabi-gcc/4.8.3-2014q1/bin/../lib/gcc/arm-none-eabi/4.8.3/armv7-m\libgcc.a(_arm_addsubsf3.o)
                0x08007ec0                __aeabi_frsub
                0x08007ec8                __subsf3
                0x08007ec8                __aeabi_fsub
                0x08007ecc                __aeabi_fadd
                0x08007ecc                __addsf3
                0x0800802c                __aeabi_ui2f
                0x0800802c                __floatunsisf
                0x08008034                __aeabi_i2f
                0x08008034                __floatsisf
                0x08008050                __aeabi_ul2f
                0x08008050                __floatundisf
                0x08008060                __aeabi_l2f
                0x08008060                __floatdisf
 .text          0x080080dc      0x2a0 c:/users/administrator/appdata/local/arduino15/packages/arduino/tools/arm-none-eabi-gcc/4.8.3-2014q1/bin/../lib/gcc/arm-none-eabi/4.8.3/armv7-m\libgcc.a(_arm_muldivsf3.o)
                0x080080dc                __mulsf3
                0x080080dc                __aeabi_fmul
                0x08008244                __aeabi_fdiv
                0x08008244                __divsf3
 .text          0x0800837c       0xec c:/users/administrator/appdata/local/arduino15/packages/arduino/tools/arm-none-eabi-gcc/4.8.3-2014q1/bin/../lib/gcc/arm-none-eabi/4.8.3/armv7-m\libgcc.a(_arm_cmpsf2.o)
                0x0800837c                __gesf2
                0x0800837c                __gtsf2
                0x08008384                __lesf2
                0x08008384                __ltsf2
                0x0800838c                __nesf2
                0x0800838c                __eqsf2
                0x0800838c                __cmpsf2
                0x080083ec                __aeabi_cfrcmple
                0x080083f4                __aeabi_cfcmpeq
                0x080083f4                __aeabi_cfcmple
                0x08008404                __aeabi_fcmpeq
                0x08008418                __aeabi_fcmplt
                0x0800842c                __aeabi_fcmple
                0x08008440                __aeabi_fcmpge
                0x08008454                __aeabi_fcmpgt
 .text          0x08008468       0x40 c:/users/administrator/appdata/local/arduino15/packages/arduino/tools/arm-none-eabi-gcc/4.8.3-2014q1/bin/../lib/gcc/arm-none-eabi/4.8.3/armv7-m\libgcc.a(_arm_fixunssfsi.o)
                0x08008468                __fixunssfsi
                0x08008468                __aeabi_f2uiz
 .text          0x080084a8       0x2c c:/users/administrator/appdata/local/arduino15/packages/arduino/tools/arm-none-eabi-gcc/4.8.3-2014q1/bin/../lib/gcc/arm-none-eabi/4.8.3/armv7-m\libgcc.a(_aeabi_uldivmod.o)
                0x080084a8                __aeabi_uldivmod
 .text          0x080084d4       0x30 c:/users/administrator/appdata/local/arduino15/packages/arduino/tools/arm-none-eabi-gcc/4.8.3-2014q1/bin/../lib/gcc/arm-none-eabi/4.8.3/armv7-m\libgcc.a(_fixdfdi.o)
                0x080084d4                __fixdfdi
                0x080084d4                __aeabi_d2lz
 .text          0x08008504       0x44 c:/users/administrator/appdata/local/arduino15/packages/arduino/tools/arm-none-eabi-gcc/4.8.3-2014q1/bin/../lib/gcc/arm-none-eabi/4.8.3/armv7-m\libgcc.a(_fixunsdfdi.o)
                0x08008504                __fixunsdfdi
                0x08008504                __aeabi_d2ulz
 .text          0x08008548       0x60 c:/users/administrator/appdata/local/arduino15/packages/arduino/tools/arm-none-eabi-gcc/4.8.3-2014q1/bin/../lib/gcc/arm-none-eabi/4.8.3/armv7-m\libgcc.a(bpabi.o)
                0x08008548                __gnu_ldivmod_helper
                0x08008578                __gnu_uldivmod_helper
 .text          0x080085a8        0x4 c:/users/administrator/appdata/local/arduino15/packages/arduino/tools/arm-none-eabi-gcc/4.8.3-2014q1/bin/../lib/gcc/arm-none-eabi/4.8.3/armv7-m\libgcc.a(_dvmd_tls.o)
                0x080085a8                __aeabi_idiv0
                0x080085a8                __aeabi_ldiv0
 .text          0x080085ac      0x2a0 c:/users/administrator/appdata/local/arduino15/packages/arduino/tools/arm-none-eabi-gcc/4.8.3-2014q1/bin/../lib/gcc/arm-none-eabi/4.8.3/armv7-m\libgcc.a(_divdi3.o)
                0x080085ac                __divdi3
 .text          0x0800884c      0x290 c:/users/administrator/appdata/local/arduino15/packages/arduino/tools/arm-none-eabi-gcc/4.8.3-2014q1/bin/../lib/gcc/arm-none-eabi/4.8.3/armv7-m\libgcc.a(_udivdi3.o)
                0x0800884c                __udivdi3
 .text.exit     0x08008adc       0x20 c:/users/administrator/appdata/local/arduino15/packages/arduino/tools/arm-none-eabi-gcc/4.8.3-2014q1/bin/../lib/gcc/arm-none-eabi/4.8.3/../../../../arm-none-eabi/lib/armv7-m\libc.a(lib_a-exit.o)
                0x08008adc                exit
 .text.__libc_init_array
                0x08008afc       0x50 c:/users/administrator/appdata/local/arduino15/packages/arduino/tools/arm-none-eabi-gcc/4.8.3-2014q1/bin/../lib/gcc/arm-none-eabi/4.8.3/../../../../arm-none-eabi/lib/armv7-m\libc.a(lib_a-init.o)
                0x08008afc                __libc_init_array
 .text.memset   0x08008b4c       0x94 c:/users/administrator/appdata/local/arduino15/packages/arduino/tools/arm-none-eabi-gcc/4.8.3-2014q1/bin/../lib/gcc/arm-none-eabi/4.8.3/../../../../arm-none-eabi/lib/armv7-m\libc.a(lib_a-memset.o)
                0x08008b4c                memset
 .text.rand     0x08008be0       0x40 c:/users/administrator/appdata/local/arduino15/packages/arduino/tools/arm-none-eabi-gcc/4.8.3-2014q1/bin/../lib/gcc/arm-none-eabi/4.8.3/../../../../arm-none-eabi/lib/armv7-m\libc.a(lib_a-rand.o)
                0x08008be0                rand
 .text.startup.register_fini
                0x08008c20       0x14 c:/users/administrator/appdata/local/arduino15/packages/arduino/tools/arm-none-eabi-gcc/4.8.3-2014q1/bin/../lib/gcc/arm-none-eabi/4.8.3/../../../../arm-none-eabi/lib/armv7-m\libc.a(lib_a-__call_atexit.o)
 .text.__call_exitprocs
                0x08008c34       0xf0 c:/users/administrator/appdata/local/arduino15/packages/arduino/tools/arm-none-eabi-gcc/4.8.3-2014q1/bin/../lib/gcc/arm-none-eabi/4.8.3/../../../../arm-none-eabi/lib/armv7-m\libc.a(lib_a-__call_atexit.o)
                0x08008c34                __call_exitprocs
 .text.atexit   0x08008d24        0xc c:/users/administrator/appdata/local/arduino15/packages/arduino/tools/arm-none-eabi-gcc/4.8.3-2014q1/bin/../lib/gcc/arm-none-eabi/4.8.3/../../../../arm-none-eabi/lib/armv7-m\libc.a(lib_a-atexit.o)
                0x08008d24                atexit
 .text.__libc_fini_array
                0x08008d30       0x30 c:/users/administrator/appdata/local/arduino15/packages/arduino/tools/arm-none-eabi-gcc/4.8.3-2014q1/bin/../lib/gcc/arm-none-eabi/4.8.3/../../../../arm-none-eabi/lib/armv7-m\libc.a(lib_a-fini.o)
                0x08008d30                __libc_fini_array
 .text.__register_exitproc
                0x08008d60       0xa8 c:/users/administrator/appdata/local/arduino15/packages/arduino/tools/arm-none-eabi-gcc/4.8.3-2014q1/bin/../lib/gcc/arm-none-eabi/4.8.3/../../../../arm-none-eabi/lib/armv7-m\libc.a(lib_a-__atexit.o)
                0x08008d60                __register_exitproc
 *(.plt)
 *(.gnu.warning)
 *(.glue_7t)
 .glue_7t       0x00000000        0x0 linker stubs
 *(.glue_7)
 .glue_7        0x00000000        0x0 linker stubs
 *(.vfp11_veneer)
 .vfp11_veneer  0x00000000        0x0 linker stubs
 *(.ARM.extab* .gnu.linkonce.armextab.*)
 *(.gcc_except_table)
 *(.eh_frame_hdr)
 *(.eh_frame)
 .eh_frame      0x08008e08        0x0 c:/users/administrator/appdata/local/arduino15/packages/arduino/tools/arm-none-eabi-gcc/4.8.3-2014q1/bin/../lib/gcc/arm-none-eabi/4.8.3/armv7-m/crtbegin.o
                0x08008e08                . = ALIGN (0x4)
 *(.init)
 .init          0x08008e08        0x4 c:/users/administrator/appdata/local/arduino15/packages/arduino/tools/arm-none-eabi-gcc/4.8.3-2014q1/bin/../lib/gcc/arm-none-eabi/4.8.3/armv7-m/crti.o
                0x08008e08                _init
 .init          0x08008e0c        0x8 c:/users/administrator/appdata/local/arduino15/packages/arduino/tools/arm-none-eabi-gcc/4.8.3-2014q1/bin/../lib/gcc/arm-none-eabi/4.8.3/armv7-m/crtn.o
                0x08008e14                . = ALIGN (0x4)
                0x08008e14                __preinit_array_start = .
 *(.preinit_array)
                0x08008e14                __preinit_array_end = .
                0x08008e14                . = ALIGN (0x4)
                0x08008e14                __init_array_start = .
 *(SORT(.init_array.*))
 .init_array.00000
                0x08008e14        0x4 c:/users/administrator/appdata/local/arduino15/packages/arduino/tools/arm-none-eabi-gcc/4.8.3-2014q1/bin/../lib/gcc/arm-none-eabi/4.8.3/../../../../arm-none-eabi/lib/armv7-m\libc.a(lib_a-__call_atexit.o)
 .init_array.00101
                0x08008e18        0x4 C:\Users\Administrator\AppData\Local\Temp\VMBuilds\LoRa_Roll_Film\stm32_genericSTM32F103R\Release/core.a(main.cpp.o)
 *(.init_array)
 .init_array    0x08008e1c        0x4 c:/users/administrator/appdata/local/arduino15/packages/arduino/tools/arm-none-eabi-gcc/4.8.3-2014q1/bin/../lib/gcc/arm-none-eabi/4.8.3/armv7-m/crtbegin.o
 .init_array    0x08008e20        0x4 Private_RTC.cpp.o
 .init_array    0x08008e24        0x4 C:\Users\Administrator\AppData\Local\Temp\VMBCore\arduino16x\a25b0c93d50495b56da79188cbb05a7a\variant\board.cpp.o
 .init_array    0x08008e28        0x4 C:\Users\Administrator\AppData\Local\Temp\VMBuilds\LoRa_Roll_Film\stm32_genericSTM32F103R\Release/core.a(HardwareTimer.cpp.o)
                0x08008e2c                __init_array_end = .
                0x08008e2c                . = ALIGN (0x4)
 *crtbegin.o(.ctors)
 *(EXCLUDE_FILE(*crtend.o) .ctors)
 *(SORT(.ctors.*))
 *crtend.o(.ctors)
                0x08008e2c                . = ALIGN (0x4)
 *(.fini)
 .fini          0x08008e2c        0x4 c:/users/administrator/appdata/local/arduino15/packages/arduino/tools/arm-none-eabi-gcc/4.8.3-2014q1/bin/../lib/gcc/arm-none-eabi/4.8.3/armv7-m/crti.o
                0x08008e2c                _fini
 .fini          0x08008e30        0x8 c:/users/administrator/appdata/local/arduino15/packages/arduino/tools/arm-none-eabi-gcc/4.8.3-2014q1/bin/../lib/gcc/arm-none-eabi/4.8.3/armv7-m/crtn.o
                0x08008e38                . = ALIGN (0x4)
                0x08008e38                __fini_array_start = .
 *(.fini_array)
 .fini_array    0x08008e38        0x4 c:/users/administrator/appdata/local/arduino15/packages/arduino/tools/arm-none-eabi-gcc/4.8.3-2014q1/bin/../lib/gcc/arm-none-eabi/4.8.3/armv7-m/crtbegin.o
 *(SORT(.fini_array.*))
                0x08008e3c                __fini_array_end = .
 *crtbegin.o(.dtors)
 *(EXCLUDE_FILE(*crtend.o) .dtors)
 *(SORT(.dtors.*))
 *crtend.o(.dtors)

.v4_bx          0x08008e3c        0x0
 .v4_bx         0x00000000        0x0 linker stubs

.iplt           0x08008e3c        0x0
 .iplt          0x00000000        0x0 c:/users/administrator/appdata/local/arduino15/packages/arduino/tools/arm-none-eabi-gcc/4.8.3-2014q1/bin/../lib/gcc/arm-none-eabi/4.8.3/armv7-m/crtbegin.o

.text.align     0x08008e3c        0x4
                0x08008e40                . = ALIGN (0x8)
 *fill*         0x08008e3c        0x4 
                0x08008e40                __text_end__ = .
                0x08008e40                __exidx_start = .

.ARM.exidx      0x08008e40        0x8
 *(.ARM.exidx* .gnu.linkonce.armexidx.*)
 .ARM.exidx     0x08008e40        0x8 C:\Users\Administrator\AppData\Local\Temp\VMBCore\arduino16x\a25b0c93d50495b56da79188cbb05a7a\variant\start.S.o
 .ARM.exidx     0x08008e48        0x0 c:/users/administrator/appdata/local/arduino15/packages/arduino/tools/arm-none-eabi-gcc/4.8.3-2014q1/bin/../lib/gcc/arm-none-eabi/4.8.3/armv7-m\libgcc.a(_divdi3.o)
                                  0x8 (size before relaxing)
 .ARM.exidx     0x08008e48        0x0 c:/users/administrator/appdata/local/arduino15/packages/arduino/tools/arm-none-eabi-gcc/4.8.3-2014q1/bin/../lib/gcc/arm-none-eabi/4.8.3/armv7-m\libgcc.a(_udivdi3.o)
                                  0x8 (size before relaxing)
                0x08008e48                __exidx_end = .

.data           0x20000000     0x12f0 load address 0x08008e48
                0x20000000                __data_start__ = .
                0x20000000        0x4 LONG 0x0
                0x20000008                . = ALIGN (0x8)
 *fill*         0x20000004        0x4 
 *(.got.plt)
 *(.got)
 *(.data .data.* .gnu.linkonce.d.*)
 .data.gIsHandleMsgFlag
                0x20000008        0x1 Command_Analysis.cpp.o
                0x20000008                gIsHandleMsgFlag
 .data.gAccessNetworkFlag
                0x20000009        0x1 Command_Analysis.cpp.o
                0x20000009                gAccessNetworkFlag
 *fill*         0x2000000a        0x2 
 .data.RTC      0x2000000c        0x4 RTClock\utility\rtc_util.c.o
                0x2000000c                RTC
 .data.rtc      0x20000010       0x14 RTClock\utility\rtc_util.c.o
 .data._ZN6wirish4privL8pll_dataE
                0x20000024        0x4 C:\Users\Administrator\AppData\Local\Temp\VMBCore\arduino16x\a25b0c93d50495b56da79188cbb05a7a\variant\boards_setup.cpp.o
 .data._ZN6wirish4priv9w_adc_smpE
                0x20000028        0x1 C:\Users\Administrator\AppData\Local\Temp\VMBCore\arduino16x\a25b0c93d50495b56da79188cbb05a7a\variant\boards_setup.cpp.o
                0x20000028                wirish::priv::w_adc_smp
 *fill*         0x20000029        0x1 
 .data._ZN6wirish4priv9w_adc_preE
                0x2000002a        0x2 C:\Users\Administrator\AppData\Local\Temp\VMBCore\arduino16x\a25b0c93d50495b56da79188cbb05a7a\variant\boards_setup.cpp.o
                0x2000002a                wirish::priv::w_adc_pre
 .data._ZN6wirish4priv15w_board_pll_cfgE
                0x2000002c        0x8 C:\Users\Administrator\AppData\Local\Temp\VMBCore\arduino16x\a25b0c93d50495b56da79188cbb05a7a\variant\boards_setup.cpp.o
                0x2000002c                wirish::priv::w_board_pll_cfg
 .data.adc2     0x20000034        0x8 C:\Users\Administrator\AppData\Local\Temp\VMBuilds\LoRa_Roll_Film\stm32_genericSTM32F103R\Release/core.a(adc_f1.c.o)
                0x20000034                adc2
 .data.adc3     0x2000003c       0x18 C:\Users\Administrator\AppData\Local\Temp\VMBuilds\LoRa_Roll_Film\stm32_genericSTM32F103R\Release/core.a(adc_f1.c.o)
                0x2000003c                adc3
 .data.adc1     0x20000054       0x18 C:\Users\Administrator\AppData\Local\Temp\VMBuilds\LoRa_Roll_Film\stm32_genericSTM32F103R\Release/core.a(adc_f1.c.o)
                0x20000054                adc1
 .data.ADC2     0x2000006c        0x4 C:\Users\Administrator\AppData\Local\Temp\VMBuilds\LoRa_Roll_Film\stm32_genericSTM32F103R\Release/core.a(adc_f1.c.o)
                0x2000006c                ADC2
 .data.ADC1     0x20000070        0x4 C:\Users\Administrator\AppData\Local\Temp\VMBuilds\LoRa_Roll_Film\stm32_genericSTM32F103R\Release/core.a(adc_f1.c.o)
                0x20000070                ADC1
 .data.ADC3     0x20000074        0x4 C:\Users\Administrator\AppData\Local\Temp\VMBuilds\LoRa_Roll_Film\stm32_genericSTM32F103R\Release/core.a(adc_f1.c.o)
                0x20000074                ADC3
 .data.gpioa    0x20000078        0x8 C:\Users\Administrator\AppData\Local\Temp\VMBuilds\LoRa_Roll_Film\stm32_genericSTM32F103R\Release/core.a(gpio_f1.c.o)
                0x20000078                gpioa
 .data.gpiob    0x20000080        0x8 C:\Users\Administrator\AppData\Local\Temp\VMBuilds\LoRa_Roll_Film\stm32_genericSTM32F103R\Release/core.a(gpio_f1.c.o)
                0x20000080                gpiob
 .data.gpioc    0x20000088        0x8 C:\Users\Administrator\AppData\Local\Temp\VMBuilds\LoRa_Roll_Film\stm32_genericSTM32F103R\Release/core.a(gpio_f1.c.o)
                0x20000088                gpioc
 .data.gpiod    0x20000090        0x8 C:\Users\Administrator\AppData\Local\Temp\VMBuilds\LoRa_Roll_Film\stm32_genericSTM32F103R\Release/core.a(gpio_f1.c.o)
                0x20000090                gpiod
 .data.gpioe    0x20000098        0x8 C:\Users\Administrator\AppData\Local\Temp\VMBuilds\LoRa_Roll_Film\stm32_genericSTM32F103R\Release/core.a(gpio_f1.c.o)
                0x20000098                gpioe
 .data.gpiof    0x200000a0        0x8 C:\Users\Administrator\AppData\Local\Temp\VMBuilds\LoRa_Roll_Film\stm32_genericSTM32F103R\Release/core.a(gpio_f1.c.o)
                0x200000a0                gpiof
 .data.gpiog    0x200000a8        0x8 C:\Users\Administrator\AppData\Local\Temp\VMBuilds\LoRa_Roll_Film\stm32_genericSTM32F103R\Release/core.a(gpio_f1.c.o)
                0x200000a8                gpiog
 .data.enable_regs.4411
                0x200000b0        0xc C:\Users\Administrator\AppData\Local\Temp\VMBuilds\LoRa_Roll_Film\stm32_genericSTM32F103R\Release/core.a(rcc_f1.c.o)
 .data.reset_regs.4415
                0x200000bc        0x8 C:\Users\Administrator\AppData\Local\Temp\VMBuilds\LoRa_Roll_Film\stm32_genericSTM32F103R\Release/core.a(rcc_f1.c.o)
 .data.enable_regs.4424
                0x200000c4        0xc C:\Users\Administrator\AppData\Local\Temp\VMBuilds\LoRa_Roll_Film\stm32_genericSTM32F103R\Release/core.a(rcc_f1.c.o)
 .data.timer3   0x200000d0       0x24 C:\Users\Administrator\AppData\Local\Temp\VMBuilds\LoRa_Roll_Film\stm32_genericSTM32F103R\Release/core.a(timer.c.o)
                0x200000d0                timer3
 .data.timer4   0x200000f4       0x24 C:\Users\Administrator\AppData\Local\Temp\VMBuilds\LoRa_Roll_Film\stm32_genericSTM32F103R\Release/core.a(timer.c.o)
                0x200000f4                timer4
 .data.timer5   0x20000118       0x24 C:\Users\Administrator\AppData\Local\Temp\VMBuilds\LoRa_Roll_Film\stm32_genericSTM32F103R\Release/core.a(timer.c.o)
                0x20000118                timer5
 .data.timer6   0x2000013c        0xc C:\Users\Administrator\AppData\Local\Temp\VMBuilds\LoRa_Roll_Film\stm32_genericSTM32F103R\Release/core.a(timer.c.o)
                0x2000013c                timer6
 .data.timer7   0x20000148        0xc C:\Users\Administrator\AppData\Local\Temp\VMBuilds\LoRa_Roll_Film\stm32_genericSTM32F103R\Release/core.a(timer.c.o)
                0x20000148                timer7
 .data.timer8   0x20000154       0x28 C:\Users\Administrator\AppData\Local\Temp\VMBuilds\LoRa_Roll_Film\stm32_genericSTM32F103R\Release/core.a(timer.c.o)
                0x20000154                timer8
 .data.timer1   0x2000017c       0x28 C:\Users\Administrator\AppData\Local\Temp\VMBuilds\LoRa_Roll_Film\stm32_genericSTM32F103R\Release/core.a(timer.c.o)
                0x2000017c                timer1
 .data.timer2   0x200001a4       0x24 C:\Users\Administrator\AppData\Local\Temp\VMBuilds\LoRa_Roll_Film\stm32_genericSTM32F103R\Release/core.a(timer.c.o)
                0x200001a4                timer2
 .data.USART1   0x200001c8        0x4 C:\Users\Administrator\AppData\Local\Temp\VMBuilds\LoRa_Roll_Film\stm32_genericSTM32F103R\Release/core.a(usart_f1.c.o)
                0x200001c8                USART1
 .data.USART2   0x200001cc        0x4 C:\Users\Administrator\AppData\Local\Temp\VMBuilds\LoRa_Roll_Film\stm32_genericSTM32F103R\Release/core.a(usart_f1.c.o)
                0x200001cc                USART2
 .data.USART3   0x200001d0        0x4 C:\Users\Administrator\AppData\Local\Temp\VMBuilds\LoRa_Roll_Film\stm32_genericSTM32F103R\Release/core.a(usart_f1.c.o)
                0x200001d0                USART3
 .data.usart3   0x200001d4      0x294 C:\Users\Administrator\AppData\Local\Temp\VMBuilds\LoRa_Roll_Film\stm32_genericSTM32F103R\Release/core.a(usart_f1.c.o)
 .data.usart1   0x20000468      0x294 C:\Users\Administrator\AppData\Local\Temp\VMBuilds\LoRa_Roll_Film\stm32_genericSTM32F103R\Release/core.a(usart_f1.c.o)
 .data.usart2   0x200006fc      0x294 C:\Users\Administrator\AppData\Local\Temp\VMBuilds\LoRa_Roll_Film\stm32_genericSTM32F103R\Release/core.a(usart_f1.c.o)
 .data.uart4    0x20000990      0x294 C:\Users\Administrator\AppData\Local\Temp\VMBuilds\LoRa_Roll_Film\stm32_genericSTM32F103R\Release/core.a(usart_f1.c.o)
 .data.uart5    0x20000c24      0x294 C:\Users\Administrator\AppData\Local\Temp\VMBuilds\LoRa_Roll_Film\stm32_genericSTM32F103R\Release/core.a(usart_f1.c.o)
 .data.UART4    0x20000eb8        0x4 C:\Users\Administrator\AppData\Local\Temp\VMBuilds\LoRa_Roll_Film\stm32_genericSTM32F103R\Release/core.a(usart_f1.c.o)
                0x20000eb8                UART4
 .data.UART5    0x20000ebc        0x4 C:\Users\Administrator\AppData\Local\Temp\VMBuilds\LoRa_Roll_Film\stm32_genericSTM32F103R\Release/core.a(usart_f1.c.o)
                0x20000ebc                UART5
 .data.impure_data
                0x20000ec0      0x428 c:/users/administrator/appdata/local/arduino15/packages/arduino/tools/arm-none-eabi-gcc/4.8.3-2014q1/bin/../lib/gcc/arm-none-eabi/4.8.3/../../../../arm-none-eabi/lib/armv7-m\libc.a(lib_a-impure.o)
 .data._impure_ptr
                0x200012e8        0x4 c:/users/administrator/appdata/local/arduino15/packages/arduino/tools/arm-none-eabi-gcc/4.8.3-2014q1/bin/../lib/gcc/arm-none-eabi/4.8.3/../../../../arm-none-eabi/lib/armv7-m\libc.a(lib_a-impure.o)
                0x200012e8                _impure_ptr
                0x200012f0                . = ALIGN (0x8)
 *fill*         0x200012ec        0x4 
                0x200012f0                __data_end__ = .

.jcr            0x200012f0        0x0 load address 0x0800a138
 .jcr           0x200012f0        0x0 c:/users/administrator/appdata/local/arduino15/packages/arduino/tools/arm-none-eabi-gcc/4.8.3-2014q1/bin/../lib/gcc/arm-none-eabi/4.8.3/armv7-m/crtbegin.o

.igot.plt       0x200012f0        0x0 load address 0x0800a138
 .igot.plt      0x00000000        0x0 c:/users/administrator/appdata/local/arduino15/packages/arduino/tools/arm-none-eabi-gcc/4.8.3-2014q1/bin/../lib/gcc/arm-none-eabi/4.8.3/armv7-m/crtbegin.o

.rodata         0x0800a138     0x25fc
 *(.rodata .rodata.* .gnu.linkonce.r.*)
 .rodata.str1.1
                0x0800a138      0x234 LoRa_Roll_Film.cpp.o
 .rodata.str1.1
                0x0800a36c      0x95e Command_Analysis.cpp.o
                                0x988 (size before relaxing)
 .rodata.str1.1
                0x0800acca      0x431 LoRa.cpp.o
                                0x436 (size before relaxing)
 .rodata.str1.1
                0x0800b0fb      0x112 Memory.cpp.o
 .rodata.str1.1
                0x0800b20d      0xe66 Motor.cpp.o
                                0xe82 (size before relaxing)
 .rodata.str1.1
                0x0800c073       0x7e receipt.cpp.o
                                 0x80 (size before relaxing)
 .rodata.str1.1
                0x0800c0f1      0x134 Security.cpp.o
 *fill*         0x0800c225        0x3 
 .rodata.PIN_MAP
                0x0800c228      0x330 C:\Users\Administrator\AppData\Local\Temp\VMBCore\arduino16x\a25b0c93d50495b56da79188cbb05a7a\variant\board.cpp.o
                0x0800c228                PIN_MAP
 .rodata.GPIOB  0x0800c558        0x4 C:\Users\Administrator\AppData\Local\Temp\VMBuilds\LoRa_Roll_Film\stm32_genericSTM32F103R\Release/core.a(gpio_f1.c.o)
                0x0800c558                GPIOB
 .rodata.str1.1
                0x0800c55c       0x70 C:\Users\Administrator\AppData\Local\Temp\VMBuilds\LoRa_Roll_Film\stm32_genericSTM32F103R\Release/core.a(rcc_f1.c.o)
 .rodata.rcc_dev_table
                0x0800c5cc       0x5c C:\Users\Administrator\AppData\Local\Temp\VMBuilds\LoRa_Roll_Film\stm32_genericSTM32F103R\Release/core.a(rcc_f1.c.o)
                0x0800c5cc                rcc_dev_table
 .rodata.masks.4420
                0x0800c628       0x14 C:\Users\Administrator\AppData\Local\Temp\VMBuilds\LoRa_Roll_Film\stm32_genericSTM32F103R\Release/core.a(rcc_f1.c.o)
 .rodata.str1.1
                0x0800c63c       0x6f C:\Users\Administrator\AppData\Local\Temp\VMBuilds\LoRa_Roll_Film\stm32_genericSTM32F103R\Release/core.a(timer.c.o)
                                 0x71 (size before relaxing)
 .rodata.str1.1
                0x0800c6ab       0x3f C:\Users\Administrator\AppData\Local\Temp\VMBuilds\LoRa_Roll_Film\stm32_genericSTM32F103R\Release/core.a(util.c.o)
                                 0x42 (size before relaxing)
 *fill*         0x0800c6ea        0x6 
 .rodata._ZTV14HardwareSerial
                0x0800c6f0       0x28 C:\Users\Administrator\AppData\Local\Temp\VMBuilds\LoRa_Roll_Film\stm32_genericSTM32F103R\Release/core.a(HardwareSerial.cpp.o)
                0x0800c6f0                vtable for HardwareSerial
 .rodata.str1.1
                0x0800c718        0xf C:\Users\Administrator\AppData\Local\Temp\VMBuilds\LoRa_Roll_Film\stm32_genericSTM32F103R\Release/core.a(Print.cpp.o)
                                 0x11 (size before relaxing)
 *fill*         0x0800c727        0x1 
 .rodata.str1.4
                0x0800c728        0x4 c:/users/administrator/appdata/local/arduino15/packages/arduino/tools/arm-none-eabi-gcc/4.8.3-2014q1/bin/../lib/gcc/arm-none-eabi/4.8.3/../../../../arm-none-eabi/lib/armv7-m\libc.a(lib_a-impure.o)
 .rodata._global_impure_ptr
                0x0800c72c        0x4 c:/users/administrator/appdata/local/arduino15/packages/arduino/tools/arm-none-eabi-gcc/4.8.3-2014q1/bin/../lib/gcc/arm-none-eabi/4.8.3/../../../../arm-none-eabi/lib/armv7-m\libc.a(lib_a-impure.o)
                0x0800c72c                _global_impure_ptr
 *(.USER_FLASH)
                0x0800c730                . = ALIGN (0x4)
                0x0800c730                _lm_rom_img_cfgp = .
                0x0800c730        0x4 LONG 0x8008e48 LOADADDR (.data)
                0x20001588                _lm_heap_start = DEFINED (_lm_heap_start)?_lm_heap_start:_end
                0x2000c000                _lm_heap_end = DEFINED (_lm_heap_end)?_lm_heap_end:__msp_init

.rel.dyn        0x0800c734        0x0
 .rel.iplt      0x00000000        0x0 c:/users/administrator/appdata/local/arduino15/packages/arduino/tools/arm-none-eabi-gcc/4.8.3-2014q1/bin/../lib/gcc/arm-none-eabi/4.8.3/armv7-m/crtbegin.o

.bss            0x200012f0      0x298
                0x200012f0                . = ALIGN (0x8)
                0x200012f0                __bss_start__ = .
 *(.bss .bss.* .gnu.linkonce.b.*)
 .bss           0x200012f0       0x1c c:/users/administrator/appdata/local/arduino15/packages/arduino/tools/arm-none-eabi-gcc/4.8.3-2014q1/bin/../lib/gcc/arm-none-eabi/4.8.3/armv7-m/crtbegin.o
 .bss.gSN_Code  0x2000130c        0x9 LoRa_Roll_Film.cpp.o
                0x2000130c                gSN_Code
 .bss.gReceiveCmd
                0x20001315       0x80 Command_Analysis.cpp.o
                0x20001315                gReceiveCmd
 .bss.gMassCommandFlag
                0x20001395        0x1 Command_Analysis.cpp.o
                0x20001395                gMassCommandFlag
 .bss.gStopWorkFlag
                0x20001396        0x1 Command_Analysis.cpp.o
                0x20001396                gStopWorkFlag
 .bss.LoRa_Command_Analysis
                0x20001397        0x1 Command_Analysis.cpp.o
                0x20001397                LoRa_Command_Analysis
 .bss.gReceiveLength
                0x20001398        0x1 Command_Analysis.cpp.o
                0x20001398                gReceiveLength
 *fill*         0x20001399        0x3 
 .bss._ZZ13LED_InterruptvE7LED_Num
                0x2000139c        0x4 fun_periph.cpp.o
 .bss._ZZ13LED_InterruptvE14LED_StatusFlag
                0x200013a0        0x1 fun_periph.cpp.o
 .bss.Which_LED
                0x200013a1        0x1 fun_periph.cpp.o
                0x200013a1                Which_LED
 *fill*         0x200013a2        0x2 
 .bss.LED_Freq  0x200013a4        0x4 fun_periph.cpp.o
                0x200013a4                LED_Freq
 .bss.Some_Peripheral
                0x200013a8        0x1 fun_periph.cpp.o
                0x200013a8                Some_Peripheral
 .bss.LoRa_MHL9LF
                0x200013a9        0x1 LoRa.cpp.o
                0x200013a9                LoRa_MHL9LF
 .bss.LoRa_Para_Config
                0x200013aa        0x1 Memory.cpp.o
                0x200013aa                LoRa_Para_Config
 .bss.Roll_Operation
                0x200013ab        0x1 Memory.cpp.o
                0x200013ab                Roll_Operation
 .bss.EEPROM_Operation
                0x200013ac        0x1 Memory.cpp.o
                0x200013ac                EEPROM_Operation
 .bss.SN        0x200013ad        0x1 Memory.cpp.o
                0x200013ad                SN
 .bss.gCurrentOverNum
                0x200013ae        0x1 Motor.cpp.o
                0x200013ae                gCurrentOverNum
 .bss.gDetectMotorOverTimeFlag
                0x200013af        0x1 Motor.cpp.o
                0x200013af                gDetectMotorOverTimeFlag
 .bss.gTraceOpeningOKFlag
                0x200013b0        0x1 Motor.cpp.o
                0x200013b0                gTraceOpeningOKFlag
 *fill*         0x200013b1        0x3 
 .bss.gManualLowCurrentNum
                0x200013b4        0x4 Motor.cpp.o
                0x200013b4                gManualLowCurrentNum
 .bss.gVerifyTraceOpeningNum
                0x200013b8        0x4 Motor.cpp.o
                0x200013b8                gVerifyTraceOpeningNum
 .bss.gResetRollWorkingFlag
                0x200013bc        0x1 Motor.cpp.o
                0x200013bc                gResetRollWorkingFlag
 .bss.gForceRollWorkingFlag
                0x200013bd        0x1 Motor.cpp.o
                0x200013bd                gForceRollWorkingFlag
 .bss.gOpeningWorkingFlag
                0x200013be        0x1 Motor.cpp.o
                0x200013be                gOpeningWorkingFlag
 .bss.gManualKeyExceptionFlag
                0x200013bf        0x1 Motor.cpp.o
                0x200013bf                gManualKeyExceptionFlag
 .bss.gAdjustOpeningFlag
                0x200013c0        0x1 Motor.cpp.o
                0x200013c0                gAdjustOpeningFlag
 .bss.gIsTraceUpOpeningFlag
                0x200013c1        0x1 Motor.cpp.o
                0x200013c1                gIsTraceUpOpeningFlag
 *fill*         0x200013c2        0x2 
 .bss.gRollingTime
                0x200013c4        0x4 Motor.cpp.o
                0x200013c4                gRollingTime
 .bss.gManualUpDetectFlag
                0x200013c8        0x1 Motor.cpp.o
                0x200013c8                gManualUpDetectFlag
 .bss.gManualDownDetectFlag
                0x200013c9        0x1 Motor.cpp.o
                0x200013c9                gManualDownDetectFlag
 .bss.gStartTraceOpeningFlag
                0x200013ca        0x1 Motor.cpp.o
                0x200013ca                gStartTraceOpeningFlag
 .bss.Motor_Operation
                0x200013cb        0x1 Motor.cpp.o
                0x200013cb                Motor_Operation
 .bss.gVerifyRollOK_LowCurrentTime
                0x200013cc        0x4 Motor.cpp.o
                0x200013cc                gVerifyRollOK_LowCurrentTime
 .bss.gNeedResetRollFlag
                0x200013d0        0x1 Motor.cpp.o
                0x200013d0                gNeedResetRollFlag
 .bss.gRollingTimeVarFlag
                0x200013d1        0x1 Motor.cpp.o
                0x200013d1                gRollingTimeVarFlag
 *fill*         0x200013d2        0x2 
 .bss.gLowCurrentTime
                0x200013d4        0x4 Motor.cpp.o
                0x200013d4                gLowCurrentTime
 .bss.Date      0x200013d8        0x1 Private_RTC.cpp.o
                0x200013d8                Date
 *fill*         0x200013d9        0x3 
 .bss._ZL13gSelfCheckNum
                0x200013dc        0x4 Private_Timer.cpp.o
 .bss.Type_Conv
                0x200013e0        0x1 public.cpp.o
                0x200013e0                Type_Conv
 .bss.gLoRaCSQ  0x200013e1        0x2 receipt.cpp.o
                0x200013e1                gLoRaCSQ
 .bss.Message_Receipt
                0x200013e3        0x1 receipt.cpp.o
                0x200013e3                Message_Receipt
 .bss.gMotorStatus
                0x200013e4        0x1 receipt.cpp.o
                0x200013e4                gMotorStatus
 .bss.SelfCheckTryNum
                0x200013e5        0x1 Security.cpp.o
                0x200013e5                SelfCheckTryNum
 .bss.gCheckStoreParamFlag
                0x200013e6        0x1 Security.cpp.o
                0x200013e6                gCheckStoreParamFlag
 *fill*         0x200013e7        0x1 
 .bss.Serial    0x200013e8       0x18 C:\Users\Administrator\AppData\Local\Temp\VMBCore\arduino16x\a25b0c93d50495b56da79188cbb05a7a\variant\board.cpp.o
                0x200013e8                Serial
 .bss.Serial1   0x20001400       0x18 C:\Users\Administrator\AppData\Local\Temp\VMBCore\arduino16x\a25b0c93d50495b56da79188cbb05a7a\variant\board.cpp.o
                0x20001400                Serial1
 .bss.Serial2   0x20001418       0x18 C:\Users\Administrator\AppData\Local\Temp\VMBCore\arduino16x\a25b0c93d50495b56da79188cbb05a7a\variant\board.cpp.o
                0x20001418                Serial2
 .bss.Serial3   0x20001430       0x18 C:\Users\Administrator\AppData\Local\Temp\VMBCore\arduino16x\a25b0c93d50495b56da79188cbb05a7a\variant\board.cpp.o
                0x20001430                Serial3
 .bss.Serial4   0x20001448       0x18 C:\Users\Administrator\AppData\Local\Temp\VMBCore\arduino16x\a25b0c93d50495b56da79188cbb05a7a\variant\board.cpp.o
                0x20001448                Serial4
 .bss.systick_user_callback
                0x20001460        0x4 C:\Users\Administrator\AppData\Local\Temp\VMBuilds\LoRa_Roll_Film\stm32_genericSTM32F103R\Release/core.a(systick.c.o)
 .bss.usart1_wb
                0x20001464        0xc C:\Users\Administrator\AppData\Local\Temp\VMBuilds\LoRa_Roll_Film\stm32_genericSTM32F103R\Release/core.a(usart_f1.c.o)
 .bss.usart1_rb
                0x20001470        0xc C:\Users\Administrator\AppData\Local\Temp\VMBuilds\LoRa_Roll_Film\stm32_genericSTM32F103R\Release/core.a(usart_f1.c.o)
 .bss.usart2_rb
                0x2000147c        0xc C:\Users\Administrator\AppData\Local\Temp\VMBuilds\LoRa_Roll_Film\stm32_genericSTM32F103R\Release/core.a(usart_f1.c.o)
 .bss.usart3_rb
                0x20001488        0xc C:\Users\Administrator\AppData\Local\Temp\VMBuilds\LoRa_Roll_Film\stm32_genericSTM32F103R\Release/core.a(usart_f1.c.o)
 .bss.uart4_rb  0x20001494        0xc C:\Users\Administrator\AppData\Local\Temp\VMBuilds\LoRa_Roll_Film\stm32_genericSTM32F103R\Release/core.a(usart_f1.c.o)
 .bss.uart5_rb  0x200014a0        0xc C:\Users\Administrator\AppData\Local\Temp\VMBuilds\LoRa_Roll_Film\stm32_genericSTM32F103R\Release/core.a(usart_f1.c.o)
 .bss.usart2_wb
                0x200014ac        0xc C:\Users\Administrator\AppData\Local\Temp\VMBuilds\LoRa_Roll_Film\stm32_genericSTM32F103R\Release/core.a(usart_f1.c.o)
 .bss.uart4_wb  0x200014b8        0xc C:\Users\Administrator\AppData\Local\Temp\VMBuilds\LoRa_Roll_Film\stm32_genericSTM32F103R\Release/core.a(usart_f1.c.o)
 .bss.usart3_wb
                0x200014c4        0xc C:\Users\Administrator\AppData\Local\Temp\VMBuilds\LoRa_Roll_Film\stm32_genericSTM32F103R\Release/core.a(usart_f1.c.o)
 .bss.uart5_wb  0x200014d0        0xc C:\Users\Administrator\AppData\Local\Temp\VMBuilds\LoRa_Roll_Film\stm32_genericSTM32F103R\Release/core.a(usart_f1.c.o)
 .bss.Timer1    0x200014dc        0x4 C:\Users\Administrator\AppData\Local\Temp\VMBuilds\LoRa_Roll_Film\stm32_genericSTM32F103R\Release/core.a(HardwareTimer.cpp.o)
                0x200014dc                Timer1
 .bss.Timer2    0x200014e0        0x4 C:\Users\Administrator\AppData\Local\Temp\VMBuilds\LoRa_Roll_Film\stm32_genericSTM32F103R\Release/core.a(HardwareTimer.cpp.o)
                0x200014e0                Timer2
 .bss.Timer3    0x200014e4        0x4 C:\Users\Administrator\AppData\Local\Temp\VMBuilds\LoRa_Roll_Film\stm32_genericSTM32F103R\Release/core.a(HardwareTimer.cpp.o)
                0x200014e4                Timer3
 .bss.Timer4    0x200014e8        0x4 C:\Users\Administrator\AppData\Local\Temp\VMBuilds\LoRa_Roll_Film\stm32_genericSTM32F103R\Release/core.a(HardwareTimer.cpp.o)
                0x200014e8                Timer4
 .bss.Timer5    0x200014ec        0x4 C:\Users\Administrator\AppData\Local\Temp\VMBuilds\LoRa_Roll_Film\stm32_genericSTM32F103R\Release/core.a(HardwareTimer.cpp.o)
                0x200014ec                Timer5
 .bss.Timer6    0x200014f0        0x4 C:\Users\Administrator\AppData\Local\Temp\VMBuilds\LoRa_Roll_Film\stm32_genericSTM32F103R\Release/core.a(HardwareTimer.cpp.o)
                0x200014f0                Timer6
 .bss._ZL7this_id
                0x200014f4        0x1 C:\Users\Administrator\AppData\Local\Temp\VMBuilds\LoRa_Roll_Film\stm32_genericSTM32F103R\Release/core.a(HardwareTimer.cpp.o)
 *fill*         0x200014f5        0x3 
 .bss.Timer8    0x200014f8        0x4 C:\Users\Administrator\AppData\Local\Temp\VMBuilds\LoRa_Roll_Film\stm32_genericSTM32F103R\Release/core.a(HardwareTimer.cpp.o)
                0x200014f8                Timer8
 .bss.Timer7    0x200014fc        0x4 C:\Users\Administrator\AppData\Local\Temp\VMBuilds\LoRa_Roll_Film\stm32_genericSTM32F103R\Release/core.a(HardwareTimer.cpp.o)
                0x200014fc                Timer7
 .bss._ZL9this_devp
                0x20001500        0x4 C:\Users\Administrator\AppData\Local\Temp\VMBuilds\LoRa_Roll_Film\stm32_genericSTM32F103R\Release/core.a(HardwareTimer.cpp.o)
 .bss.exti_channels
                0x20001504       0x80 C:\Users\Administrator\AppData\Local\Temp\VMBuilds\LoRa_Roll_Film\stm32_genericSTM32F103R\Release/core.a(exti.c.o)
 *(COMMON)
 COMMON         0x20001584        0x4 C:\Users\Administrator\AppData\Local\Temp\VMBuilds\LoRa_Roll_Film\stm32_genericSTM32F103R\Release/core.a(systick.c.o)
                0x20001584                systick_uptime_millis
                0x20001588                . = ALIGN (0x8)
                0x20001588                __bss_end__ = .
                0x20001588                _end = __bss_end__

.stab
 *(.stab)

.stabstr
 *(.stabstr)

.debug
 *(.debug)

.line
 *(.line)

.debug_srcinfo
 *(.debug_srcinfo)

.debug_sfnames
 *(.debug_sfnames)

.debug_aranges  0x00000000     0x1340
 *(.debug_aranges)
 .debug_aranges
                0x00000000       0x48 LoRa_Roll_Film.cpp.o
 .debug_aranges
                0x00000048       0x48 User_Clock.c.o
 .debug_aranges
                0x00000090       0x30 AT24CXX.cpp.o
 .debug_aranges
                0x000000c0       0x78 BCD_CON.cpp.o
 .debug_aranges
                0x00000138       0xa0 Command_Analysis.cpp.o
 .debug_aranges
                0x000001d8       0x48 fun_periph.cpp.o
 .debug_aranges
                0x00000220       0x68 i2c.cpp.o
 .debug_aranges
                0x00000288       0x28 IAP.cpp.o
 .debug_aranges
                0x000002b0       0xa0 LoRa.cpp.o
 .debug_aranges
                0x00000350      0x220 Memory.cpp.o
 .debug_aranges
                0x00000570       0xe8 Motor.cpp.o
 .debug_aranges
                0x00000658       0x30 Private_RTC.cpp.o
 .debug_aranges
                0x00000688       0x58 Private_Timer.cpp.o
 .debug_aranges
                0x000006e0       0x40 public.cpp.o
 .debug_aranges
                0x00000720       0x58 receipt.cpp.o
 .debug_aranges
                0x00000778       0x30 Security.cpp.o
 .debug_aranges
                0x000007a8       0x20 User_CRC8.cpp.o
 .debug_aranges
                0x000007c8       0x80 RTClock\RTClock.cpp.o
 .debug_aranges
                0x00000848       0x90 RTClock\utility\rtc_util.c.o
 .debug_aranges
                0x000008d8       0x20 C:\Users\Administrator\AppData\Local\Temp\VMBCore\arduino16x\a25b0c93d50495b56da79188cbb05a7a\variant\board.cpp.o
 .debug_aranges
                0x000008f8       0x40 C:\Users\Administrator\AppData\Local\Temp\VMBCore\arduino16x\a25b0c93d50495b56da79188cbb05a7a\variant\boards.cpp.o
 .debug_aranges
                0x00000938       0x40 C:\Users\Administrator\AppData\Local\Temp\VMBCore\arduino16x\a25b0c93d50495b56da79188cbb05a7a\variant\boards_setup.cpp.o
 .debug_aranges
                0x00000978       0x20 C:\Users\Administrator\AppData\Local\Temp\VMBCore\arduino16x\a25b0c93d50495b56da79188cbb05a7a\variant\start.S.o
 .debug_aranges
                0x00000998       0x20 C:\Users\Administrator\AppData\Local\Temp\VMBCore\arduino16x\a25b0c93d50495b56da79188cbb05a7a\variant\start_c.c.o
 .debug_aranges
                0x000009b8       0x88 C:\Users\Administrator\AppData\Local\Temp\VMBCore\arduino16x\a25b0c93d50495b56da79188cbb05a7a\variant\syscalls.c.o
 .debug_aranges
                0x00000a40       0x20 C:\Users\Administrator\AppData\Local\Temp\VMBuilds\LoRa_Roll_Film\stm32_genericSTM32F103R\Release/core.a(exc.S.o)
 .debug_aranges
                0x00000a60       0x20 C:\Users\Administrator\AppData\Local\Temp\VMBuilds\LoRa_Roll_Film\stm32_genericSTM32F103R\Release/core.a(isrs.S.o)
 .debug_aranges
                0x00000a80       0x38 C:\Users\Administrator\AppData\Local\Temp\VMBuilds\LoRa_Roll_Film\stm32_genericSTM32F103R\Release/core.a(adc.c.o)
 .debug_aranges
                0x00000ab8       0x60 C:\Users\Administrator\AppData\Local\Temp\VMBuilds\LoRa_Roll_Film\stm32_genericSTM32F103R\Release/core.a(adc_f1.c.o)
 .debug_aranges
                0x00000b18       0x48 C:\Users\Administrator\AppData\Local\Temp\VMBuilds\LoRa_Roll_Film\stm32_genericSTM32F103R\Release/core.a(bkp_f1.c.o)
 .debug_aranges
                0x00000b60       0x20 C:\Users\Administrator\AppData\Local\Temp\VMBuilds\LoRa_Roll_Film\stm32_genericSTM32F103R\Release/core.a(flash.c.o)
 .debug_aranges
                0x00000b80       0x40 C:\Users\Administrator\AppData\Local\Temp\VMBuilds\LoRa_Roll_Film\stm32_genericSTM32F103R\Release/core.a(gpio_f1.c.o)
 .debug_aranges
                0x00000bc0       0x28 C:\Users\Administrator\AppData\Local\Temp\VMBuilds\LoRa_Roll_Film\stm32_genericSTM32F103R\Release/core.a(iwdg.c.o)
 .debug_aranges
                0x00000be8       0x38 C:\Users\Administrator\AppData\Local\Temp\VMBuilds\LoRa_Roll_Film\stm32_genericSTM32F103R\Release/core.a(nvic.c.o)
 .debug_aranges
                0x00000c20       0x48 C:\Users\Administrator\AppData\Local\Temp\VMBuilds\LoRa_Roll_Film\stm32_genericSTM32F103R\Release/core.a(rcc.c.o)
 .debug_aranges
                0x00000c68       0x48 C:\Users\Administrator\AppData\Local\Temp\VMBuilds\LoRa_Roll_Film\stm32_genericSTM32F103R\Release/core.a(rcc_f1.c.o)
 .debug_aranges
                0x00000cb0       0x40 C:\Users\Administrator\AppData\Local\Temp\VMBuilds\LoRa_Roll_Film\stm32_genericSTM32F103R\Release/core.a(systick.c.o)
 .debug_aranges
                0x00000cf0       0xd0 C:\Users\Administrator\AppData\Local\Temp\VMBuilds\LoRa_Roll_Film\stm32_genericSTM32F103R\Release/core.a(timer.c.o)
 .debug_aranges
                0x00000dc0       0x68 C:\Users\Administrator\AppData\Local\Temp\VMBuilds\LoRa_Roll_Film\stm32_genericSTM32F103R\Release/core.a(usart_f1.c.o)
 .debug_aranges
                0x00000e28       0x20 C:\Users\Administrator\AppData\Local\Temp\VMBuilds\LoRa_Roll_Film\stm32_genericSTM32F103R\Release/core.a(usart_private.c.o)
 .debug_aranges
                0x00000e48       0x50 C:\Users\Administrator\AppData\Local\Temp\VMBuilds\LoRa_Roll_Film\stm32_genericSTM32F103R\Release/core.a(util.c.o)
 .debug_aranges
                0x00000e98       0x30 C:\Users\Administrator\AppData\Local\Temp\VMBuilds\LoRa_Roll_Film\stm32_genericSTM32F103R\Release/core.a(ext_interrupts.cpp.o)
 .debug_aranges
                0x00000ec8       0x68 C:\Users\Administrator\AppData\Local\Temp\VMBuilds\LoRa_Roll_Film\stm32_genericSTM32F103R\Release/core.a(HardwareSerial.cpp.o)
 .debug_aranges
                0x00000f30       0xd0 C:\Users\Administrator\AppData\Local\Temp\VMBuilds\LoRa_Roll_Film\stm32_genericSTM32F103R\Release/core.a(HardwareTimer.cpp.o)
 .debug_aranges
                0x00001000       0x28 C:\Users\Administrator\AppData\Local\Temp\VMBuilds\LoRa_Roll_Film\stm32_genericSTM32F103R\Release/core.a(main.cpp.o)
 .debug_aranges
                0x00001028      0x110 C:\Users\Administrator\AppData\Local\Temp\VMBuilds\LoRa_Roll_Film\stm32_genericSTM32F103R\Release/core.a(Print.cpp.o)
 .debug_aranges
                0x00001138       0x20 C:\Users\Administrator\AppData\Local\Temp\VMBuilds\LoRa_Roll_Film\stm32_genericSTM32F103R\Release/core.a(wirish_analog.cpp.o)
 .debug_aranges
                0x00001158       0x28 C:\Users\Administrator\AppData\Local\Temp\VMBuilds\LoRa_Roll_Film\stm32_genericSTM32F103R\Release/core.a(wirish_digital.cpp.o)
 .debug_aranges
                0x00001180       0x40 C:\Users\Administrator\AppData\Local\Temp\VMBuilds\LoRa_Roll_Film\stm32_genericSTM32F103R\Release/core.a(wirish_math.cpp.o)
 .debug_aranges
                0x000011c0       0x28 C:\Users\Administrator\AppData\Local\Temp\VMBuilds\LoRa_Roll_Film\stm32_genericSTM32F103R\Release/core.a(wirish_time.cpp.o)
 .debug_aranges
                0x000011e8       0x20 C:\Users\Administrator\AppData\Local\Temp\VMBuilds\LoRa_Roll_Film\stm32_genericSTM32F103R\Release/core.a(wirish_digital_f1.cpp.o)
 .debug_aranges
                0x00001208       0x20 C:\Users\Administrator\AppData\Local\Temp\VMBuilds\LoRa_Roll_Film\stm32_genericSTM32F103R\Release/core.a(hooks.c.o)
 .debug_aranges
                0x00001228       0x70 C:\Users\Administrator\AppData\Local\Temp\VMBuilds\LoRa_Roll_Film\stm32_genericSTM32F103R\Release/core.a(exti.c.o)
 .debug_aranges
                0x00001298       0x20 C:\Users\Administrator\AppData\Local\Temp\VMBuilds\LoRa_Roll_Film\stm32_genericSTM32F103R\Release/core.a(exti_f1.c.o)
 .debug_aranges
                0x000012b8       0x20 C:\Users\Administrator\AppData\Local\Temp\VMBuilds\LoRa_Roll_Film\stm32_genericSTM32F103R\Release/core.a(gpio.c.o)
 .debug_aranges
                0x000012d8       0x48 C:\Users\Administrator\AppData\Local\Temp\VMBuilds\LoRa_Roll_Film\stm32_genericSTM32F103R\Release/core.a(usart.c.o)
 .debug_aranges
                0x00001320       0x20 C:\Users\Administrator\AppData\Local\Temp\VMBuilds\LoRa_Roll_Film\stm32_genericSTM32F103R\Release/core.a(cxxabi-compat.cpp.o)

.debug_pubnames
 *(.debug_pubnames)

.debug_info     0x00000000    0x2ff18
 *(.debug_info .gnu.linkonce.wi.*)
 .debug_info    0x00000000     0x2333 LoRa_Roll_Film.cpp.o
 .debug_info    0x00002333      0x2a1 User_Clock.c.o
 .debug_info    0x000025d4      0x574 AT24CXX.cpp.o
 .debug_info    0x00002b48      0x744 BCD_CON.cpp.o
 .debug_info    0x0000328c     0x2ba2 Command_Analysis.cpp.o
 .debug_info    0x00005e2e     0x1350 fun_periph.cpp.o
 .debug_info    0x0000717e      0xade i2c.cpp.o
 .debug_info    0x00007c5c      0x19e IAP.cpp.o
 .debug_info    0x00007dfa     0x2078 LoRa.cpp.o
 .debug_info    0x00009e72     0x402d Memory.cpp.o
 .debug_info    0x0000de9f     0x43ad Motor.cpp.o
 .debug_info    0x0001224c      0x959 Private_RTC.cpp.o
 .debug_info    0x00012ba5      0xe55 Private_Timer.cpp.o
 .debug_info    0x000139fa      0x43a public.cpp.o
 .debug_info    0x00013e34     0x2190 receipt.cpp.o
 .debug_info    0x00015fc4     0x1319 Security.cpp.o
 .debug_info    0x000172dd      0x191 User_CRC8.cpp.o
 .debug_info    0x0001746e      0x9c3 RTClock\RTClock.cpp.o
 .debug_info    0x00017e31      0xf1e RTClock\utility\rtc_util.c.o
 .debug_info    0x00018d4f     0x102b C:\Users\Administrator\AppData\Local\Temp\VMBCore\arduino16x\a25b0c93d50495b56da79188cbb05a7a\variant\board.cpp.o
 .debug_info    0x00019d7a     0x142d C:\Users\Administrator\AppData\Local\Temp\VMBCore\arduino16x\a25b0c93d50495b56da79188cbb05a7a\variant\boards.cpp.o
 .debug_info    0x0001b1a7      0x665 C:\Users\Administrator\AppData\Local\Temp\VMBCore\arduino16x\a25b0c93d50495b56da79188cbb05a7a\variant\boards_setup.cpp.o
 .debug_info    0x0001b80c       0xb1 C:\Users\Administrator\AppData\Local\Temp\VMBCore\arduino16x\a25b0c93d50495b56da79188cbb05a7a\variant\start.S.o
 .debug_info    0x0001b8bd      0x176 C:\Users\Administrator\AppData\Local\Temp\VMBCore\arduino16x\a25b0c93d50495b56da79188cbb05a7a\variant\start_c.c.o
 .debug_info    0x0001ba33      0x5cd C:\Users\Administrator\AppData\Local\Temp\VMBCore\arduino16x\a25b0c93d50495b56da79188cbb05a7a\variant\syscalls.c.o
 .debug_info    0x0001c000       0xa1 C:\Users\Administrator\AppData\Local\Temp\VMBuilds\LoRa_Roll_Film\stm32_genericSTM32F103R\Release/core.a(exc.S.o)
 .debug_info    0x0001c0a1       0xb6 C:\Users\Administrator\AppData\Local\Temp\VMBuilds\LoRa_Roll_Film\stm32_genericSTM32F103R\Release/core.a(isrs.S.o)
 .debug_info    0x0001c157      0x79a C:\Users\Administrator\AppData\Local\Temp\VMBuilds\LoRa_Roll_Film\stm32_genericSTM32F103R\Release/core.a(adc.c.o)
 .debug_info    0x0001c8f1      0xeec C:\Users\Administrator\AppData\Local\Temp\VMBuilds\LoRa_Roll_Film\stm32_genericSTM32F103R\Release/core.a(adc_f1.c.o)
 .debug_info    0x0001d7dd      0x65e C:\Users\Administrator\AppData\Local\Temp\VMBuilds\LoRa_Roll_Film\stm32_genericSTM32F103R\Release/core.a(bkp_f1.c.o)
 .debug_info    0x0001de3b      0x128 C:\Users\Administrator\AppData\Local\Temp\VMBuilds\LoRa_Roll_Film\stm32_genericSTM32F103R\Release/core.a(flash.c.o)
 .debug_info    0x0001df63      0x781 C:\Users\Administrator\AppData\Local\Temp\VMBuilds\LoRa_Roll_Film\stm32_genericSTM32F103R\Release/core.a(gpio_f1.c.o)
 .debug_info    0x0001e6e4      0x16b C:\Users\Administrator\AppData\Local\Temp\VMBuilds\LoRa_Roll_Film\stm32_genericSTM32F103R\Release/core.a(iwdg.c.o)
 .debug_info    0x0001e84f      0x5a2 C:\Users\Administrator\AppData\Local\Temp\VMBuilds\LoRa_Roll_Film\stm32_genericSTM32F103R\Release/core.a(nvic.c.o)
 .debug_info    0x0001edf1      0x556 C:\Users\Administrator\AppData\Local\Temp\VMBuilds\LoRa_Roll_Film\stm32_genericSTM32F103R\Release/core.a(rcc.c.o)
 .debug_info    0x0001f347      0xbdb C:\Users\Administrator\AppData\Local\Temp\VMBuilds\LoRa_Roll_Film\stm32_genericSTM32F103R\Release/core.a(rcc_f1.c.o)
 .debug_info    0x0001ff22      0x182 C:\Users\Administrator\AppData\Local\Temp\VMBuilds\LoRa_Roll_Film\stm32_genericSTM32F103R\Release/core.a(systick.c.o)
 .debug_info    0x000200a4     0x2093 C:\Users\Administrator\AppData\Local\Temp\VMBuilds\LoRa_Roll_Film\stm32_genericSTM32F103R\Release/core.a(timer.c.o)
 .debug_info    0x00022137      0xd8c C:\Users\Administrator\AppData\Local\Temp\VMBuilds\LoRa_Roll_Film\stm32_genericSTM32F103R\Release/core.a(usart_f1.c.o)
 .debug_info    0x00022ec3      0x5a9 C:\Users\Administrator\AppData\Local\Temp\VMBuilds\LoRa_Roll_Film\stm32_genericSTM32F103R\Release/core.a(usart_private.c.o)
 .debug_info    0x0002346c      0xae6 C:\Users\Administrator\AppData\Local\Temp\VMBuilds\LoRa_Roll_Film\stm32_genericSTM32F103R\Release/core.a(util.c.o)
 .debug_info    0x00023f52      0xd2b C:\Users\Administrator\AppData\Local\Temp\VMBuilds\LoRa_Roll_Film\stm32_genericSTM32F103R\Release/core.a(ext_interrupts.cpp.o)
 .debug_info    0x00024c7d     0x2a36 C:\Users\Administrator\AppData\Local\Temp\VMBuilds\LoRa_Roll_Film\stm32_genericSTM32F103R\Release/core.a(HardwareSerial.cpp.o)
 .debug_info    0x000276b3     0x1b84 C:\Users\Administrator\AppData\Local\Temp\VMBuilds\LoRa_Roll_Film\stm32_genericSTM32F103R\Release/core.a(HardwareTimer.cpp.o)
 .debug_info    0x00029237       0x99 C:\Users\Administrator\AppData\Local\Temp\VMBuilds\LoRa_Roll_Film\stm32_genericSTM32F103R\Release/core.a(main.cpp.o)
 .debug_info    0x000292d0     0x253a C:\Users\Administrator\AppData\Local\Temp\VMBuilds\LoRa_Roll_Film\stm32_genericSTM32F103R\Release/core.a(Print.cpp.o)
 .debug_info    0x0002b80a      0xa8a C:\Users\Administrator\AppData\Local\Temp\VMBuilds\LoRa_Roll_Film\stm32_genericSTM32F103R\Release/core.a(wirish_analog.cpp.o)
 .debug_info    0x0002c294      0xb17 C:\Users\Administrator\AppData\Local\Temp\VMBuilds\LoRa_Roll_Film\stm32_genericSTM32F103R\Release/core.a(wirish_digital.cpp.o)
 .debug_info    0x0002cdab      0x20c C:\Users\Administrator\AppData\Local\Temp\VMBuilds\LoRa_Roll_Film\stm32_genericSTM32F103R\Release/core.a(wirish_math.cpp.o)
 .debug_info    0x0002cfb7      0x221 C:\Users\Administrator\AppData\Local\Temp\VMBuilds\LoRa_Roll_Film\stm32_genericSTM32F103R\Release/core.a(wirish_time.cpp.o)
 .debug_info    0x0002d1d8      0xc90 C:\Users\Administrator\AppData\Local\Temp\VMBuilds\LoRa_Roll_Film\stm32_genericSTM32F103R\Release/core.a(wirish_digital_f1.cpp.o)
 .debug_info    0x0002de68       0x33 C:\Users\Administrator\AppData\Local\Temp\VMBuilds\LoRa_Roll_Film\stm32_genericSTM32F103R\Release/core.a(hooks.c.o)
 .debug_info    0x0002de9b      0xedd C:\Users\Administrator\AppData\Local\Temp\VMBuilds\LoRa_Roll_Film\stm32_genericSTM32F103R\Release/core.a(exti.c.o)
 .debug_info    0x0002ed78      0x213 C:\Users\Administrator\AppData\Local\Temp\VMBuilds\LoRa_Roll_Film\stm32_genericSTM32F103R\Release/core.a(exti_f1.c.o)
 .debug_info    0x0002ef8b      0x313 C:\Users\Administrator\AppData\Local\Temp\VMBuilds\LoRa_Roll_Film\stm32_genericSTM32F103R\Release/core.a(gpio.c.o)
 .debug_info    0x0002f29e      0xc47 C:\Users\Administrator\AppData\Local\Temp\VMBuilds\LoRa_Roll_Film\stm32_genericSTM32F103R\Release/core.a(usart.c.o)
 .debug_info    0x0002fee5       0x33 C:\Users\Administrator\AppData\Local\Temp\VMBuilds\LoRa_Roll_Film\stm32_genericSTM32F103R\Release/core.a(cxxabi-compat.cpp.o)

.debug_abbrev   0x00000000     0x7c41
 *(.debug_abbrev)
 .debug_abbrev  0x00000000      0x3e9 LoRa_Roll_Film.cpp.o
 .debug_abbrev  0x000003e9      0x1ad User_Clock.c.o
 .debug_abbrev  0x00000596      0x1df AT24CXX.cpp.o
 .debug_abbrev  0x00000775      0x277 BCD_CON.cpp.o
 .debug_abbrev  0x000009ec      0x454 Command_Analysis.cpp.o
 .debug_abbrev  0x00000e40      0x381 fun_periph.cpp.o
 .debug_abbrev  0x000011c1      0x1fc i2c.cpp.o
 .debug_abbrev  0x000013bd       0xf7 IAP.cpp.o
 .debug_abbrev  0x000014b4      0x490 LoRa.cpp.o
 .debug_abbrev  0x00001944      0x3a4 Memory.cpp.o
 .debug_abbrev  0x00001ce8      0x50c Motor.cpp.o
 .debug_abbrev  0x000021f4      0x295 Private_RTC.cpp.o
 .debug_abbrev  0x00002489      0x29b Private_Timer.cpp.o
 .debug_abbrev  0x00002724      0x1ef public.cpp.o
 .debug_abbrev  0x00002913      0x404 receipt.cpp.o
 .debug_abbrev  0x00002d17      0x2c2 Security.cpp.o
 .debug_abbrev  0x00002fd9       0xe3 User_CRC8.cpp.o
 .debug_abbrev  0x000030bc      0x2c1 RTClock\RTClock.cpp.o
 .debug_abbrev  0x0000337d      0x30d RTClock\utility\rtc_util.c.o
 .debug_abbrev  0x0000368a      0x1ea C:\Users\Administrator\AppData\Local\Temp\VMBCore\arduino16x\a25b0c93d50495b56da79188cbb05a7a\variant\board.cpp.o
 .debug_abbrev  0x00003874      0x3dd C:\Users\Administrator\AppData\Local\Temp\VMBCore\arduino16x\a25b0c93d50495b56da79188cbb05a7a\variant\boards.cpp.o
 .debug_abbrev  0x00003c51      0x196 C:\Users\Administrator\AppData\Local\Temp\VMBCore\arduino16x\a25b0c93d50495b56da79188cbb05a7a\variant\boards_setup.cpp.o
 .debug_abbrev  0x00003de7       0x14 C:\Users\Administrator\AppData\Local\Temp\VMBCore\arduino16x\a25b0c93d50495b56da79188cbb05a7a\variant\start.S.o
 .debug_abbrev  0x00003dfb      0x11f C:\Users\Administrator\AppData\Local\Temp\VMBCore\arduino16x\a25b0c93d50495b56da79188cbb05a7a\variant\start_c.c.o
 .debug_abbrev  0x00003f1a      0x17e C:\Users\Administrator\AppData\Local\Temp\VMBCore\arduino16x\a25b0c93d50495b56da79188cbb05a7a\variant\syscalls.c.o
 .debug_abbrev  0x00004098       0x14 C:\Users\Administrator\AppData\Local\Temp\VMBuilds\LoRa_Roll_Film\stm32_genericSTM32F103R\Release/core.a(exc.S.o)
 .debug_abbrev  0x000040ac       0x14 C:\Users\Administrator\AppData\Local\Temp\VMBuilds\LoRa_Roll_Film\stm32_genericSTM32F103R\Release/core.a(isrs.S.o)
 .debug_abbrev  0x000040c0      0x20b C:\Users\Administrator\AppData\Local\Temp\VMBuilds\LoRa_Roll_Film\stm32_genericSTM32F103R\Release/core.a(adc.c.o)
 .debug_abbrev  0x000042cb      0x2e6 C:\Users\Administrator\AppData\Local\Temp\VMBuilds\LoRa_Roll_Film\stm32_genericSTM32F103R\Release/core.a(adc_f1.c.o)
 .debug_abbrev  0x000045b1      0x1d3 C:\Users\Administrator\AppData\Local\Temp\VMBuilds\LoRa_Roll_Film\stm32_genericSTM32F103R\Release/core.a(bkp_f1.c.o)
 .debug_abbrev  0x00004784       0x9f C:\Users\Administrator\AppData\Local\Temp\VMBuilds\LoRa_Roll_Film\stm32_genericSTM32F103R\Release/core.a(flash.c.o)
 .debug_abbrev  0x00004823      0x191 C:\Users\Administrator\AppData\Local\Temp\VMBuilds\LoRa_Roll_Film\stm32_genericSTM32F103R\Release/core.a(gpio_f1.c.o)
 .debug_abbrev  0x000049b4       0xcb C:\Users\Administrator\AppData\Local\Temp\VMBuilds\LoRa_Roll_Film\stm32_genericSTM32F103R\Release/core.a(iwdg.c.o)
 .debug_abbrev  0x00004a7f      0x1ac C:\Users\Administrator\AppData\Local\Temp\VMBuilds\LoRa_Roll_Film\stm32_genericSTM32F103R\Release/core.a(nvic.c.o)
 .debug_abbrev  0x00004c2b      0x17f C:\Users\Administrator\AppData\Local\Temp\VMBuilds\LoRa_Roll_Film\stm32_genericSTM32F103R\Release/core.a(rcc.c.o)
 .debug_abbrev  0x00004daa      0x28c C:\Users\Administrator\AppData\Local\Temp\VMBuilds\LoRa_Roll_Film\stm32_genericSTM32F103R\Release/core.a(rcc_f1.c.o)
 .debug_abbrev  0x00005036      0x10f C:\Users\Administrator\AppData\Local\Temp\VMBuilds\LoRa_Roll_Film\stm32_genericSTM32F103R\Release/core.a(systick.c.o)
 .debug_abbrev  0x00005145      0x434 C:\Users\Administrator\AppData\Local\Temp\VMBuilds\LoRa_Roll_Film\stm32_genericSTM32F103R\Release/core.a(timer.c.o)
 .debug_abbrev  0x00005579      0x2aa C:\Users\Administrator\AppData\Local\Temp\VMBuilds\LoRa_Roll_Film\stm32_genericSTM32F103R\Release/core.a(usart_f1.c.o)
 .debug_abbrev  0x00005823      0x15c C:\Users\Administrator\AppData\Local\Temp\VMBuilds\LoRa_Roll_Film\stm32_genericSTM32F103R\Release/core.a(usart_private.c.o)
 .debug_abbrev  0x0000597f      0x2e1 C:\Users\Administrator\AppData\Local\Temp\VMBuilds\LoRa_Roll_Film\stm32_genericSTM32F103R\Release/core.a(util.c.o)
 .debug_abbrev  0x00005c60      0x200 C:\Users\Administrator\AppData\Local\Temp\VMBuilds\LoRa_Roll_Film\stm32_genericSTM32F103R\Release/core.a(ext_interrupts.cpp.o)
 .debug_abbrev  0x00005e60      0x53c C:\Users\Administrator\AppData\Local\Temp\VMBuilds\LoRa_Roll_Film\stm32_genericSTM32F103R\Release/core.a(HardwareSerial.cpp.o)
 .debug_abbrev  0x0000639c      0x471 C:\Users\Administrator\AppData\Local\Temp\VMBuilds\LoRa_Roll_Film\stm32_genericSTM32F103R\Release/core.a(HardwareTimer.cpp.o)
 .debug_abbrev  0x0000680d       0x7b C:\Users\Administrator\AppData\Local\Temp\VMBuilds\LoRa_Roll_Film\stm32_genericSTM32F103R\Release/core.a(main.cpp.o)
 .debug_abbrev  0x00006888      0x441 C:\Users\Administrator\AppData\Local\Temp\VMBuilds\LoRa_Roll_Film\stm32_genericSTM32F103R\Release/core.a(Print.cpp.o)
 .debug_abbrev  0x00006cc9      0x15f C:\Users\Administrator\AppData\Local\Temp\VMBuilds\LoRa_Roll_Film\stm32_genericSTM32F103R\Release/core.a(wirish_analog.cpp.o)
 .debug_abbrev  0x00006e28      0x17e C:\Users\Administrator\AppData\Local\Temp\VMBuilds\LoRa_Roll_Film\stm32_genericSTM32F103R\Release/core.a(wirish_digital.cpp.o)
 .debug_abbrev  0x00006fa6      0x10e C:\Users\Administrator\AppData\Local\Temp\VMBuilds\LoRa_Roll_Film\stm32_genericSTM32F103R\Release/core.a(wirish_math.cpp.o)
 .debug_abbrev  0x000070b4      0x155 C:\Users\Administrator\AppData\Local\Temp\VMBuilds\LoRa_Roll_Film\stm32_genericSTM32F103R\Release/core.a(wirish_time.cpp.o)
 .debug_abbrev  0x00007209      0x240 C:\Users\Administrator\AppData\Local\Temp\VMBuilds\LoRa_Roll_Film\stm32_genericSTM32F103R\Release/core.a(wirish_digital_f1.cpp.o)
 .debug_abbrev  0x00007449       0x26 C:\Users\Administrator\AppData\Local\Temp\VMBuilds\LoRa_Roll_Film\stm32_genericSTM32F103R\Release/core.a(hooks.c.o)
 .debug_abbrev  0x0000746f      0x2a5 C:\Users\Administrator\AppData\Local\Temp\VMBuilds\LoRa_Roll_Film\stm32_genericSTM32F103R\Release/core.a(exti.c.o)
 .debug_abbrev  0x00007714       0xdb C:\Users\Administrator\AppData\Local\Temp\VMBuilds\LoRa_Roll_Film\stm32_genericSTM32F103R\Release/core.a(exti_f1.c.o)
 .debug_abbrev  0x000077ef      0x113 C:\Users\Administrator\AppData\Local\Temp\VMBuilds\LoRa_Roll_Film\stm32_genericSTM32F103R\Release/core.a(gpio.c.o)
 .debug_abbrev  0x00007902      0x317 C:\Users\Administrator\AppData\Local\Temp\VMBuilds\LoRa_Roll_Film\stm32_genericSTM32F103R\Release/core.a(usart.c.o)
 .debug_abbrev  0x00007c19       0x28 C:\Users\Administrator\AppData\Local\Temp\VMBuilds\LoRa_Roll_Film\stm32_genericSTM32F103R\Release/core.a(cxxabi-compat.cpp.o)

.debug_line     0x00000000     0xe3d4
 *(.debug_line)
 .debug_line    0x00000000      0x715 LoRa_Roll_Film.cpp.o
 .debug_line    0x00000715      0x266 User_Clock.c.o
 .debug_line    0x0000097b      0x3de AT24CXX.cpp.o
 .debug_line    0x00000d59      0x48b BCD_CON.cpp.o
 .debug_line    0x000011e4      0x8c1 Command_Analysis.cpp.o
 .debug_line    0x00001aa5      0x548 fun_periph.cpp.o
 .debug_line    0x00001fed      0x526 i2c.cpp.o
 .debug_line    0x00002513      0x354 IAP.cpp.o
 .debug_line    0x00002867      0x857 LoRa.cpp.o
 .debug_line    0x000030be      0xe00 Memory.cpp.o
 .debug_line    0x00003ebe      0xdfe Motor.cpp.o
 .debug_line    0x00004cbc      0x4fc Private_RTC.cpp.o
 .debug_line    0x000051b8      0x4cb Private_Timer.cpp.o
 .debug_line    0x00005683      0x426 public.cpp.o
 .debug_line    0x00005aa9      0x846 receipt.cpp.o
 .debug_line    0x000062ef      0x522 Security.cpp.o
 .debug_line    0x00006811      0x2ed User_CRC8.cpp.o
 .debug_line    0x00006afe      0x411 RTClock\RTClock.cpp.o
 .debug_line    0x00006f0f      0x4e2 RTClock\utility\rtc_util.c.o
 .debug_line    0x000073f1      0x3bb C:\Users\Administrator\AppData\Local\Temp\VMBCore\arduino16x\a25b0c93d50495b56da79188cbb05a7a\variant\board.cpp.o
 .debug_line    0x000077ac      0x45f C:\Users\Administrator\AppData\Local\Temp\VMBCore\arduino16x\a25b0c93d50495b56da79188cbb05a7a\variant\boards.cpp.o
 .debug_line    0x00007c0b      0x34e C:\Users\Administrator\AppData\Local\Temp\VMBCore\arduino16x\a25b0c93d50495b56da79188cbb05a7a\variant\boards_setup.cpp.o
 .debug_line    0x00007f59       0x95 C:\Users\Administrator\AppData\Local\Temp\VMBCore\arduino16x\a25b0c93d50495b56da79188cbb05a7a\variant\start.S.o
 .debug_line    0x00007fee       0xa6 C:\Users\Administrator\AppData\Local\Temp\VMBCore\arduino16x\a25b0c93d50495b56da79188cbb05a7a\variant\start_c.c.o
 .debug_line    0x00008094      0x2fb C:\Users\Administrator\AppData\Local\Temp\VMBCore\arduino16x\a25b0c93d50495b56da79188cbb05a7a\variant\syscalls.c.o
 .debug_line    0x0000838f       0x98 C:\Users\Administrator\AppData\Local\Temp\VMBuilds\LoRa_Roll_Film\stm32_genericSTM32F103R\Release/core.a(exc.S.o)
 .debug_line    0x00008427       0x95 C:\Users\Administrator\AppData\Local\Temp\VMBuilds\LoRa_Roll_Film\stm32_genericSTM32F103R\Release/core.a(isrs.S.o)
 .debug_line    0x000084bc      0x2f5 C:\Users\Administrator\AppData\Local\Temp\VMBuilds\LoRa_Roll_Film\stm32_genericSTM32F103R\Release/core.a(adc.c.o)
 .debug_line    0x000087b1      0x3c4 C:\Users\Administrator\AppData\Local\Temp\VMBuilds\LoRa_Roll_Film\stm32_genericSTM32F103R\Release/core.a(adc_f1.c.o)
 .debug_line    0x00008b75      0x301 C:\Users\Administrator\AppData\Local\Temp\VMBuilds\LoRa_Roll_Film\stm32_genericSTM32F103R\Release/core.a(bkp_f1.c.o)
 .debug_line    0x00008e76      0x277 C:\Users\Administrator\AppData\Local\Temp\VMBuilds\LoRa_Roll_Film\stm32_genericSTM32F103R\Release/core.a(flash.c.o)
 .debug_line    0x000090ed      0x30c C:\Users\Administrator\AppData\Local\Temp\VMBuilds\LoRa_Roll_Film\stm32_genericSTM32F103R\Release/core.a(gpio_f1.c.o)
 .debug_line    0x000093f9      0x22c C:\Users\Administrator\AppData\Local\Temp\VMBuilds\LoRa_Roll_Film\stm32_genericSTM32F103R\Release/core.a(iwdg.c.o)
 .debug_line    0x00009625      0x2df C:\Users\Administrator\AppData\Local\Temp\VMBuilds\LoRa_Roll_Film\stm32_genericSTM32F103R\Release/core.a(nvic.c.o)
 .debug_line    0x00009904      0x359 C:\Users\Administrator\AppData\Local\Temp\VMBuilds\LoRa_Roll_Film\stm32_genericSTM32F103R\Release/core.a(rcc.c.o)
 .debug_line    0x00009c5d      0x3bc C:\Users\Administrator\AppData\Local\Temp\VMBuilds\LoRa_Roll_Film\stm32_genericSTM32F103R\Release/core.a(rcc_f1.c.o)
 .debug_line    0x0000a019      0x268 C:\Users\Administrator\AppData\Local\Temp\VMBuilds\LoRa_Roll_Film\stm32_genericSTM32F103R\Release/core.a(systick.c.o)
 .debug_line    0x0000a281      0x642 C:\Users\Administrator\AppData\Local\Temp\VMBuilds\LoRa_Roll_Film\stm32_genericSTM32F103R\Release/core.a(timer.c.o)
 .debug_line    0x0000a8c3      0x460 C:\Users\Administrator\AppData\Local\Temp\VMBuilds\LoRa_Roll_Film\stm32_genericSTM32F103R\Release/core.a(usart_f1.c.o)
 .debug_line    0x0000ad23      0x2b3 C:\Users\Administrator\AppData\Local\Temp\VMBuilds\LoRa_Roll_Film\stm32_genericSTM32F103R\Release/core.a(usart_private.c.o)
 .debug_line    0x0000afd6      0x37b C:\Users\Administrator\AppData\Local\Temp\VMBuilds\LoRa_Roll_Film\stm32_genericSTM32F103R\Release/core.a(util.c.o)
 .debug_line    0x0000b351      0x35e C:\Users\Administrator\AppData\Local\Temp\VMBuilds\LoRa_Roll_Film\stm32_genericSTM32F103R\Release/core.a(ext_interrupts.cpp.o)
 .debug_line    0x0000b6af      0x4f2 C:\Users\Administrator\AppData\Local\Temp\VMBuilds\LoRa_Roll_Film\stm32_genericSTM32F103R\Release/core.a(HardwareSerial.cpp.o)
 .debug_line    0x0000bba1      0x53e C:\Users\Administrator\AppData\Local\Temp\VMBuilds\LoRa_Roll_Film\stm32_genericSTM32F103R\Release/core.a(HardwareTimer.cpp.o)
 .debug_line    0x0000c0df       0x90 C:\Users\Administrator\AppData\Local\Temp\VMBuilds\LoRa_Roll_Film\stm32_genericSTM32F103R\Release/core.a(main.cpp.o)
 .debug_line    0x0000c16f      0x57e C:\Users\Administrator\AppData\Local\Temp\VMBuilds\LoRa_Roll_Film\stm32_genericSTM32F103R\Release/core.a(Print.cpp.o)
 .debug_line    0x0000c6ed      0x2db C:\Users\Administrator\AppData\Local\Temp\VMBuilds\LoRa_Roll_Film\stm32_genericSTM32F103R\Release/core.a(wirish_analog.cpp.o)
 .debug_line    0x0000c9c8      0x329 C:\Users\Administrator\AppData\Local\Temp\VMBuilds\LoRa_Roll_Film\stm32_genericSTM32F103R\Release/core.a(wirish_digital.cpp.o)
 .debug_line    0x0000ccf1      0x1f4 C:\Users\Administrator\AppData\Local\Temp\VMBuilds\LoRa_Roll_Film\stm32_genericSTM32F103R\Release/core.a(wirish_math.cpp.o)
 .debug_line    0x0000cee5      0x2e4 C:\Users\Administrator\AppData\Local\Temp\VMBuilds\LoRa_Roll_Film\stm32_genericSTM32F103R\Release/core.a(wirish_time.cpp.o)
 .debug_line    0x0000d1c9      0x386 C:\Users\Administrator\AppData\Local\Temp\VMBuilds\LoRa_Roll_Film\stm32_genericSTM32F103R\Release/core.a(wirish_digital_f1.cpp.o)
 .debug_line    0x0000d54f       0x79 C:\Users\Administrator\AppData\Local\Temp\VMBuilds\LoRa_Roll_Film\stm32_genericSTM32F103R\Release/core.a(hooks.c.o)
 .debug_line    0x0000d5c8      0x40b C:\Users\Administrator\AppData\Local\Temp\VMBuilds\LoRa_Roll_Film\stm32_genericSTM32F103R\Release/core.a(exti.c.o)
 .debug_line    0x0000d9d3      0x2d8 C:\Users\Administrator\AppData\Local\Temp\VMBuilds\LoRa_Roll_Film\stm32_genericSTM32F103R\Release/core.a(exti_f1.c.o)
 .debug_line    0x0000dcab      0x29c C:\Users\Administrator\AppData\Local\Temp\VMBuilds\LoRa_Roll_Film\stm32_genericSTM32F103R\Release/core.a(gpio.c.o)
 .debug_line    0x0000df47      0x40c C:\Users\Administrator\AppData\Local\Temp\VMBuilds\LoRa_Roll_Film\stm32_genericSTM32F103R\Release/core.a(usart.c.o)
 .debug_line    0x0000e353       0x81 C:\Users\Administrator\AppData\Local\Temp\VMBuilds\LoRa_Roll_Film\stm32_genericSTM32F103R\Release/core.a(cxxabi-compat.cpp.o)

.debug_frame    0x00000000     0x3410
 *(.debug_frame)
 .debug_frame   0x00000000       0xac LoRa_Roll_Film.cpp.o
 .debug_frame   0x000000ac       0x94 User_Clock.c.o
 .debug_frame   0x00000140       0x58 AT24CXX.cpp.o
 .debug_frame   0x00000198      0x164 BCD_CON.cpp.o
 .debug_frame   0x000002fc      0x1d4 Command_Analysis.cpp.o
 .debug_frame   0x000004d0       0x9c fun_periph.cpp.o
 .debug_frame   0x0000056c      0x100 i2c.cpp.o
 .debug_frame   0x0000066c       0x38 IAP.cpp.o
 .debug_frame   0x000006a4      0x1fc LoRa.cpp.o
 .debug_frame   0x000008a0      0x714 Memory.cpp.o
 .debug_frame   0x00000fb4      0x348 Motor.cpp.o
 .debug_frame   0x000012fc       0x54 Private_RTC.cpp.o
 .debug_frame   0x00001350       0xb0 Private_Timer.cpp.o
 .debug_frame   0x00001400       0x6c public.cpp.o
 .debug_frame   0x0000146c      0x100 receipt.cpp.o
 .debug_frame   0x0000156c       0x58 Security.cpp.o
 .debug_frame   0x000015c4       0x2c User_CRC8.cpp.o
 .debug_frame   0x000015f0      0x130 RTClock\RTClock.cpp.o
 .debug_frame   0x00001720      0x174 RTClock\utility\rtc_util.c.o
 .debug_frame   0x00001894       0x28 C:\Users\Administrator\AppData\Local\Temp\VMBCore\arduino16x\a25b0c93d50495b56da79188cbb05a7a\variant\board.cpp.o
 .debug_frame   0x000018bc       0x84 C:\Users\Administrator\AppData\Local\Temp\VMBCore\arduino16x\a25b0c93d50495b56da79188cbb05a7a\variant\boards.cpp.o
 .debug_frame   0x00001940       0x68 C:\Users\Administrator\AppData\Local\Temp\VMBCore\arduino16x\a25b0c93d50495b56da79188cbb05a7a\variant\boards_setup.cpp.o
 .debug_frame   0x000019a8       0x28 C:\Users\Administrator\AppData\Local\Temp\VMBCore\arduino16x\a25b0c93d50495b56da79188cbb05a7a\variant\start_c.c.o
 .debug_frame   0x000019d0      0x130 C:\Users\Administrator\AppData\Local\Temp\VMBCore\arduino16x\a25b0c93d50495b56da79188cbb05a7a\variant\syscalls.c.o
 .debug_frame   0x00001b00       0x64 C:\Users\Administrator\AppData\Local\Temp\VMBuilds\LoRa_Roll_Film\stm32_genericSTM32F103R\Release/core.a(adc.c.o)
 .debug_frame   0x00001b64       0xd0 C:\Users\Administrator\AppData\Local\Temp\VMBuilds\LoRa_Roll_Film\stm32_genericSTM32F103R\Release/core.a(adc_f1.c.o)
 .debug_frame   0x00001c34       0x88 C:\Users\Administrator\AppData\Local\Temp\VMBuilds\LoRa_Roll_Film\stm32_genericSTM32F103R\Release/core.a(bkp_f1.c.o)
 .debug_frame   0x00001cbc       0x20 C:\Users\Administrator\AppData\Local\Temp\VMBuilds\LoRa_Roll_Film\stm32_genericSTM32F103R\Release/core.a(flash.c.o)
 .debug_frame   0x00001cdc       0x7c C:\Users\Administrator\AppData\Local\Temp\VMBuilds\LoRa_Roll_Film\stm32_genericSTM32F103R\Release/core.a(gpio_f1.c.o)
 .debug_frame   0x00001d58       0x30 C:\Users\Administrator\AppData\Local\Temp\VMBuilds\LoRa_Roll_Film\stm32_genericSTM32F103R\Release/core.a(iwdg.c.o)
 .debug_frame   0x00001d88       0x5c C:\Users\Administrator\AppData\Local\Temp\VMBuilds\LoRa_Roll_Film\stm32_genericSTM32F103R\Release/core.a(nvic.c.o)
 .debug_frame   0x00001de4       0x70 C:\Users\Administrator\AppData\Local\Temp\VMBuilds\LoRa_Roll_Film\stm32_genericSTM32F103R\Release/core.a(rcc.c.o)
 .debug_frame   0x00001e54       0xa4 C:\Users\Administrator\AppData\Local\Temp\VMBuilds\LoRa_Roll_Film\stm32_genericSTM32F103R\Release/core.a(rcc_f1.c.o)
 .debug_frame   0x00001ef8       0x68 C:\Users\Administrator\AppData\Local\Temp\VMBuilds\LoRa_Roll_Film\stm32_genericSTM32F103R\Release/core.a(systick.c.o)
 .debug_frame   0x00001f60      0x25c C:\Users\Administrator\AppData\Local\Temp\VMBuilds\LoRa_Roll_Film\stm32_genericSTM32F103R\Release/core.a(timer.c.o)
 .debug_frame   0x000021bc      0x118 C:\Users\Administrator\AppData\Local\Temp\VMBuilds\LoRa_Roll_Film\stm32_genericSTM32F103R\Release/core.a(usart_f1.c.o)
 .debug_frame   0x000022d4       0x28 C:\Users\Administrator\AppData\Local\Temp\VMBuilds\LoRa_Roll_Film\stm32_genericSTM32F103R\Release/core.a(usart_private.c.o)
 .debug_frame   0x000022fc       0xc8 C:\Users\Administrator\AppData\Local\Temp\VMBuilds\LoRa_Roll_Film\stm32_genericSTM32F103R\Release/core.a(util.c.o)
 .debug_frame   0x000023c4       0x60 C:\Users\Administrator\AppData\Local\Temp\VMBuilds\LoRa_Roll_Film\stm32_genericSTM32F103R\Release/core.a(ext_interrupts.cpp.o)
 .debug_frame   0x00002424       0xe4 C:\Users\Administrator\AppData\Local\Temp\VMBuilds\LoRa_Roll_Film\stm32_genericSTM32F103R\Release/core.a(HardwareSerial.cpp.o)
 .debug_frame   0x00002508      0x19c C:\Users\Administrator\AppData\Local\Temp\VMBuilds\LoRa_Roll_Film\stm32_genericSTM32F103R\Release/core.a(HardwareTimer.cpp.o)
 .debug_frame   0x000026a4       0x38 C:\Users\Administrator\AppData\Local\Temp\VMBuilds\LoRa_Roll_Film\stm32_genericSTM32F103R\Release/core.a(main.cpp.o)
 .debug_frame   0x000026dc      0x384 C:\Users\Administrator\AppData\Local\Temp\VMBuilds\LoRa_Roll_Film\stm32_genericSTM32F103R\Release/core.a(Print.cpp.o)
 .debug_frame   0x00002a60       0x20 C:\Users\Administrator\AppData\Local\Temp\VMBuilds\LoRa_Roll_Film\stm32_genericSTM32F103R\Release/core.a(wirish_analog.cpp.o)
 .debug_frame   0x00002a80       0x30 C:\Users\Administrator\AppData\Local\Temp\VMBuilds\LoRa_Roll_Film\stm32_genericSTM32F103R\Release/core.a(wirish_digital.cpp.o)
 .debug_frame   0x00002ab0       0x70 C:\Users\Administrator\AppData\Local\Temp\VMBuilds\LoRa_Roll_Film\stm32_genericSTM32F103R\Release/core.a(wirish_math.cpp.o)
 .debug_frame   0x00002b20       0x3c C:\Users\Administrator\AppData\Local\Temp\VMBuilds\LoRa_Roll_Film\stm32_genericSTM32F103R\Release/core.a(wirish_time.cpp.o)
 .debug_frame   0x00002b5c       0x2c C:\Users\Administrator\AppData\Local\Temp\VMBuilds\LoRa_Roll_Film\stm32_genericSTM32F103R\Release/core.a(wirish_digital_f1.cpp.o)
 .debug_frame   0x00002b88       0x20 C:\Users\Administrator\AppData\Local\Temp\VMBuilds\LoRa_Roll_Film\stm32_genericSTM32F103R\Release/core.a(hooks.c.o)
 .debug_frame   0x00002ba8      0x128 C:\Users\Administrator\AppData\Local\Temp\VMBuilds\LoRa_Roll_Film\stm32_genericSTM32F103R\Release/core.a(exti.c.o)
 .debug_frame   0x00002cd0       0x20 C:\Users\Administrator\AppData\Local\Temp\VMBuilds\LoRa_Roll_Film\stm32_genericSTM32F103R\Release/core.a(exti_f1.c.o)
 .debug_frame   0x00002cf0       0x28 C:\Users\Administrator\AppData\Local\Temp\VMBuilds\LoRa_Roll_Film\stm32_genericSTM32F103R\Release/core.a(gpio.c.o)
 .debug_frame   0x00002d18       0xb4 C:\Users\Administrator\AppData\Local\Temp\VMBuilds\LoRa_Roll_Film\stm32_genericSTM32F103R\Release/core.a(usart.c.o)
 .debug_frame   0x00002dcc       0x20 C:\Users\Administrator\AppData\Local\Temp\VMBuilds\LoRa_Roll_Film\stm32_genericSTM32F103R\Release/core.a(cxxabi-compat.cpp.o)
 .debug_frame   0x00002dec       0x38 c:/users/administrator/appdata/local/arduino15/packages/arduino/tools/arm-none-eabi-gcc/4.8.3-2014q1/bin/../lib/gcc/arm-none-eabi/4.8.3/../../../../arm-none-eabi/lib/armv7-m\libm.a(lib_a-w_pow.o)
 .debug_frame   0x00002e24       0x38 c:/users/administrator/appdata/local/arduino15/packages/arduino/tools/arm-none-eabi-gcc/4.8.3-2014q1/bin/../lib/gcc/arm-none-eabi/4.8.3/../../../../arm-none-eabi/lib/armv7-m\libm.a(lib_a-e_pow.o)
 .debug_frame   0x00002e5c       0x34 c:/users/administrator/appdata/local/arduino15/packages/arduino/tools/arm-none-eabi-gcc/4.8.3-2014q1/bin/../lib/gcc/arm-none-eabi/4.8.3/../../../../arm-none-eabi/lib/armv7-m\libm.a(lib_a-e_sqrt.o)
 .debug_frame   0x00002e90       0x20 c:/users/administrator/appdata/local/arduino15/packages/arduino/tools/arm-none-eabi-gcc/4.8.3-2014q1/bin/../lib/gcc/arm-none-eabi/4.8.3/../../../../arm-none-eabi/lib/armv7-m\libm.a(lib_a-s_fabs.o)
 .debug_frame   0x00002eb0       0x20 c:/users/administrator/appdata/local/arduino15/packages/arduino/tools/arm-none-eabi-gcc/4.8.3-2014q1/bin/../lib/gcc/arm-none-eabi/4.8.3/../../../../arm-none-eabi/lib/armv7-m\libm.a(lib_a-s_finite.o)
 .debug_frame   0x00002ed0       0x28 c:/users/administrator/appdata/local/arduino15/packages/arduino/tools/arm-none-eabi-gcc/4.8.3-2014q1/bin/../lib/gcc/arm-none-eabi/4.8.3/../../../../arm-none-eabi/lib/armv7-m\libm.a(lib_a-s_fpclassify.o)
 .debug_frame   0x00002ef8       0x20 c:/users/administrator/appdata/local/arduino15/packages/arduino/tools/arm-none-eabi-gcc/4.8.3-2014q1/bin/../lib/gcc/arm-none-eabi/4.8.3/../../../../arm-none-eabi/lib/armv7-m\libm.a(lib_a-s_matherr.o)
 .debug_frame   0x00002f18       0x20 c:/users/administrator/appdata/local/arduino15/packages/arduino/tools/arm-none-eabi-gcc/4.8.3-2014q1/bin/../lib/gcc/arm-none-eabi/4.8.3/../../../../arm-none-eabi/lib/armv7-m\libm.a(lib_a-s_nan.o)
 .debug_frame   0x00002f38       0x34 c:/users/administrator/appdata/local/arduino15/packages/arduino/tools/arm-none-eabi-gcc/4.8.3-2014q1/bin/../lib/gcc/arm-none-eabi/4.8.3/../../../../arm-none-eabi/lib/armv7-m\libm.a(lib_a-s_rint.o)
 .debug_frame   0x00002f6c       0x30 c:/users/administrator/appdata/local/arduino15/packages/arduino/tools/arm-none-eabi-gcc/4.8.3-2014q1/bin/../lib/gcc/arm-none-eabi/4.8.3/../../../../arm-none-eabi/lib/armv7-m\libm.a(lib_a-s_scalbn.o)
 .debug_frame   0x00002f9c       0x28 c:/users/administrator/appdata/local/arduino15/packages/arduino/tools/arm-none-eabi-gcc/4.8.3-2014q1/bin/../lib/gcc/arm-none-eabi/4.8.3/../../../../arm-none-eabi/lib/armv7-m\libm.a(lib_a-s_copysign.o)
 .debug_frame   0x00002fc4       0x2c c:/users/administrator/appdata/local/arduino15/packages/arduino/tools/arm-none-eabi-gcc/4.8.3-2014q1/bin/../lib/gcc/arm-none-eabi/4.8.3/armv7-m\libgcc.a(_fixdfdi.o)
 .debug_frame   0x00002ff0       0x2c c:/users/administrator/appdata/local/arduino15/packages/arduino/tools/arm-none-eabi-gcc/4.8.3-2014q1/bin/../lib/gcc/arm-none-eabi/4.8.3/armv7-m\libgcc.a(_fixunsdfdi.o)
 .debug_frame   0x0000301c       0x58 c:/users/administrator/appdata/local/arduino15/packages/arduino/tools/arm-none-eabi-gcc/4.8.3-2014q1/bin/../lib/gcc/arm-none-eabi/4.8.3/armv7-m\libgcc.a(bpabi.o)
 .debug_frame   0x00003074       0x34 c:/users/administrator/appdata/local/arduino15/packages/arduino/tools/arm-none-eabi-gcc/4.8.3-2014q1/bin/../lib/gcc/arm-none-eabi/4.8.3/armv7-m\libgcc.a(_divdi3.o)
 .debug_frame   0x000030a8       0x34 c:/users/administrator/appdata/local/arduino15/packages/arduino/tools/arm-none-eabi-gcc/4.8.3-2014q1/bin/../lib/gcc/arm-none-eabi/4.8.3/armv7-m\libgcc.a(_udivdi3.o)
 .debug_frame   0x000030dc       0x20 c:/users/administrator/appdata/local/arduino15/packages/arduino/tools/arm-none-eabi-gcc/4.8.3-2014q1/bin/../lib/gcc/arm-none-eabi/4.8.3/../../../../arm-none-eabi/lib/armv7-m\libc.a(lib_a-errno.o)
 .debug_frame   0x000030fc       0x28 c:/users/administrator/appdata/local/arduino15/packages/arduino/tools/arm-none-eabi-gcc/4.8.3-2014q1/bin/../lib/gcc/arm-none-eabi/4.8.3/../../../../arm-none-eabi/lib/armv7-m\libc.a(lib_a-exit.o)
 .debug_frame   0x00003124       0x20 c:/users/administrator/appdata/local/arduino15/packages/arduino/tools/arm-none-eabi-gcc/4.8.3-2014q1/bin/../lib/gcc/arm-none-eabi/4.8.3/../../../../arm-none-eabi/lib/armv7-m\libc.a(lib_a-gmtime.o)
 .debug_frame   0x00003144       0x20 c:/users/administrator/appdata/local/arduino15/packages/arduino/tools/arm-none-eabi-gcc/4.8.3-2014q1/bin/../lib/gcc/arm-none-eabi/4.8.3/../../../../arm-none-eabi/lib/armv7-m\libc.a(lib_a-gmtime_r.o)
 .debug_frame   0x00003164       0x2c c:/users/administrator/appdata/local/arduino15/packages/arduino/tools/arm-none-eabi-gcc/4.8.3-2014q1/bin/../lib/gcc/arm-none-eabi/4.8.3/../../../../arm-none-eabi/lib/armv7-m\libc.a(lib_a-init.o)
 .debug_frame   0x00003190       0x2c c:/users/administrator/appdata/local/arduino15/packages/arduino/tools/arm-none-eabi-gcc/4.8.3-2014q1/bin/../lib/gcc/arm-none-eabi/4.8.3/../../../../arm-none-eabi/lib/armv7-m\libc.a(lib_a-memset.o)
 .debug_frame   0x000031bc       0x60 c:/users/administrator/appdata/local/arduino15/packages/arduino/tools/arm-none-eabi-gcc/4.8.3-2014q1/bin/../lib/gcc/arm-none-eabi/4.8.3/../../../../arm-none-eabi/lib/armv7-m\libc.a(lib_a-mktime.o)
 .debug_frame   0x0000321c       0x60 c:/users/administrator/appdata/local/arduino15/packages/arduino/tools/arm-none-eabi-gcc/4.8.3-2014q1/bin/../lib/gcc/arm-none-eabi/4.8.3/../../../../arm-none-eabi/lib/armv7-m\libc.a(lib_a-mktm_r.o)
 .debug_frame   0x0000327c       0x38 c:/users/administrator/appdata/local/arduino15/packages/arduino/tools/arm-none-eabi-gcc/4.8.3-2014q1/bin/../lib/gcc/arm-none-eabi/4.8.3/../../../../arm-none-eabi/lib/armv7-m\libc.a(lib_a-rand.o)
 .debug_frame   0x000032b4       0x20 c:/users/administrator/appdata/local/arduino15/packages/arduino/tools/arm-none-eabi-gcc/4.8.3-2014q1/bin/../lib/gcc/arm-none-eabi/4.8.3/../../../../arm-none-eabi/lib/armv7-m\libc.a(lib_a-strlen.o)
 .debug_frame   0x000032d4       0x30 c:/users/administrator/appdata/local/arduino15/packages/arduino/tools/arm-none-eabi-gcc/4.8.3-2014q1/bin/../lib/gcc/arm-none-eabi/4.8.3/../../../../arm-none-eabi/lib/armv7-m\libc.a(lib_a-tzlock.o)
 .debug_frame   0x00003304       0x48 c:/users/administrator/appdata/local/arduino15/packages/arduino/tools/arm-none-eabi-gcc/4.8.3-2014q1/bin/../lib/gcc/arm-none-eabi/4.8.3/../../../../arm-none-eabi/lib/armv7-m\libc.a(lib_a-__call_atexit.o)
 .debug_frame   0x0000334c       0x20 c:/users/administrator/appdata/local/arduino15/packages/arduino/tools/arm-none-eabi-gcc/4.8.3-2014q1/bin/../lib/gcc/arm-none-eabi/4.8.3/../../../../arm-none-eabi/lib/armv7-m\libc.a(lib_a-atexit.o)
 .debug_frame   0x0000336c       0x28 c:/users/administrator/appdata/local/arduino15/packages/arduino/tools/arm-none-eabi-gcc/4.8.3-2014q1/bin/../lib/gcc/arm-none-eabi/4.8.3/../../../../arm-none-eabi/lib/armv7-m\libc.a(lib_a-div.o)
 .debug_frame   0x00003394       0x2c c:/users/administrator/appdata/local/arduino15/packages/arduino/tools/arm-none-eabi-gcc/4.8.3-2014q1/bin/../lib/gcc/arm-none-eabi/4.8.3/../../../../arm-none-eabi/lib/armv7-m\libc.a(lib_a-fini.o)
 .debug_frame   0x000033c0       0x20 c:/users/administrator/appdata/local/arduino15/packages/arduino/tools/arm-none-eabi-gcc/4.8.3-2014q1/bin/../lib/gcc/arm-none-eabi/4.8.3/../../../../arm-none-eabi/lib/armv7-m\libc.a(lib_a-gettzinfo.o)
 .debug_frame   0x000033e0       0x30 c:/users/administrator/appdata/local/arduino15/packages/arduino/tools/arm-none-eabi-gcc/4.8.3-2014q1/bin/../lib/gcc/arm-none-eabi/4.8.3/../../../../arm-none-eabi/lib/armv7-m\libc.a(lib_a-__atexit.o)

.debug_str      0x00000000     0x9fe0
 *(.debug_str)
 .debug_str     0x00000000     0x2bb4 LoRa_Roll_Film.cpp.o
                               0x2d3c (size before relaxing)
 .debug_str     0x00002bb4      0x207 User_Clock.c.o
                                0x26f (size before relaxing)
 .debug_str     0x00002dbb       0x7c AT24CXX.cpp.o
                                0x44f (size before relaxing)
 .debug_str     0x00002e37      0x239 BCD_CON.cpp.o
                                0x44b (size before relaxing)
 .debug_str     0x00003070      0x3db Command_Analysis.cpp.o
                               0x2c65 (size before relaxing)
 .debug_str     0x0000344b      0xd69 fun_periph.cpp.o
                               0x11f2 (size before relaxing)
 .debug_str     0x000041b4       0x7b i2c.cpp.o
                                0x502 (size before relaxing)
 .debug_str     0x0000422f       0xaf IAP.cpp.o
                                0x2ea (size before relaxing)
 .debug_str     0x000042de      0x272 LoRa.cpp.o
                               0x100a (size before relaxing)
 .debug_str     0x00004550      0x3fb Memory.cpp.o
                               0x1b72 (size before relaxing)
 .debug_str     0x0000494b      0x708 Motor.cpp.o
                               0x2971 (size before relaxing)
 .debug_str     0x00005053      0x819 Private_RTC.cpp.o
                                0xad0 (size before relaxing)
 .debug_str     0x0000586c       0xf3 Private_Timer.cpp.o
                               0x10e7 (size before relaxing)
 .debug_str     0x0000595f      0x127 public.cpp.o
                                0x381 (size before relaxing)
 .debug_str     0x00005a86      0x12b receipt.cpp.o
                               0x25fa (size before relaxing)
 .debug_str     0x00005bb1       0xdf Security.cpp.o
                               0x1e2e (size before relaxing)
 .debug_str     0x00005c90       0x75 User_CRC8.cpp.o
                                0x2cd (size before relaxing)
 .debug_str     0x00005d05      0x1d5 RTClock\RTClock.cpp.o
                                0x63c (size before relaxing)
 .debug_str     0x00005eda      0x20d RTClock\utility\rtc_util.c.o
                                0x9db (size before relaxing)
 .debug_str     0x000060e7      0x2be C:\Users\Administrator\AppData\Local\Temp\VMBCore\arduino16x\a25b0c93d50495b56da79188cbb05a7a\variant\board.cpp.o
                                0xd1c (size before relaxing)
 .debug_str     0x000063a5      0x74f C:\Users\Administrator\AppData\Local\Temp\VMBCore\arduino16x\a25b0c93d50495b56da79188cbb05a7a\variant\boards.cpp.o
                               0x1123 (size before relaxing)
 .debug_str     0x00006af4      0x447 C:\Users\Administrator\AppData\Local\Temp\VMBCore\arduino16x\a25b0c93d50495b56da79188cbb05a7a\variant\boards_setup.cpp.o
                                0xae5 (size before relaxing)
 .debug_str     0x00006f3b       0xe4 C:\Users\Administrator\AppData\Local\Temp\VMBCore\arduino16x\a25b0c93d50495b56da79188cbb05a7a\variant\start_c.c.o
                                0x1ec (size before relaxing)
 .debug_str     0x0000701f      0x1c1 C:\Users\Administrator\AppData\Local\Temp\VMBCore\arduino16x\a25b0c93d50495b56da79188cbb05a7a\variant\syscalls.c.o
                                0x36e (size before relaxing)
 .debug_str     0x000071e0      0x206 C:\Users\Administrator\AppData\Local\Temp\VMBuilds\LoRa_Roll_Film\stm32_genericSTM32F103R\Release/core.a(adc.c.o)
                                0xab6 (size before relaxing)
 .debug_str     0x000073e6      0x1b4 C:\Users\Administrator\AppData\Local\Temp\VMBuilds\LoRa_Roll_Film\stm32_genericSTM32F103R\Release/core.a(adc_f1.c.o)
                                0xde6 (size before relaxing)
 .debug_str     0x0000759a      0x12d C:\Users\Administrator\AppData\Local\Temp\VMBuilds\LoRa_Roll_Film\stm32_genericSTM32F103R\Release/core.a(bkp_f1.c.o)
                                0x52c (size before relaxing)
 .debug_str     0x000076c7       0x5f C:\Users\Administrator\AppData\Local\Temp\VMBuilds\LoRa_Roll_Film\stm32_genericSTM32F103R\Release/core.a(flash.c.o)
                                0x1fa (size before relaxing)
 .debug_str     0x00007726      0x2a5 C:\Users\Administrator\AppData\Local\Temp\VMBuilds\LoRa_Roll_Film\stm32_genericSTM32F103R\Release/core.a(gpio_f1.c.o)
                                0x7d6 (size before relaxing)
 .debug_str     0x000079cb       0x5f C:\Users\Administrator\AppData\Local\Temp\VMBuilds\LoRa_Roll_Film\stm32_genericSTM32F103R\Release/core.a(iwdg.c.o)
                                0x257 (size before relaxing)
 .debug_str     0x00007a2a       0xce C:\Users\Administrator\AppData\Local\Temp\VMBuilds\LoRa_Roll_Film\stm32_genericSTM32F103R\Release/core.a(nvic.c.o)
                                0x703 (size before relaxing)
 .debug_str     0x00007af8       0xf2 C:\Users\Administrator\AppData\Local\Temp\VMBuilds\LoRa_Roll_Film\stm32_genericSTM32F103R\Release/core.a(rcc.c.o)
                                0x54f (size before relaxing)
 .debug_str     0x00007bea       0xec C:\Users\Administrator\AppData\Local\Temp\VMBuilds\LoRa_Roll_Film\stm32_genericSTM32F103R\Release/core.a(rcc_f1.c.o)
                                0x809 (size before relaxing)
 .debug_str     0x00007cd6       0xcb C:\Users\Administrator\AppData\Local\Temp\VMBuilds\LoRa_Roll_Film\stm32_genericSTM32F103R\Release/core.a(systick.c.o)
                                0x260 (size before relaxing)
 .debug_str     0x00007da1      0x362 C:\Users\Administrator\AppData\Local\Temp\VMBuilds\LoRa_Roll_Film\stm32_genericSTM32F103R\Release/core.a(timer.c.o)
                                0xed7 (size before relaxing)
 .debug_str     0x00008103      0x1ca C:\Users\Administrator\AppData\Local\Temp\VMBuilds\LoRa_Roll_Film\stm32_genericSTM32F103R\Release/core.a(usart_f1.c.o)
                                0xb0e (size before relaxing)
 .debug_str     0x000082cd       0x5b C:\Users\Administrator\AppData\Local\Temp\VMBuilds\LoRa_Roll_Film\stm32_genericSTM32F103R\Release/core.a(usart_private.c.o)
                                0x885 (size before relaxing)
 .debug_str     0x00008328      0x124 C:\Users\Administrator\AppData\Local\Temp\VMBuilds\LoRa_Roll_Film\stm32_genericSTM32F103R\Release/core.a(util.c.o)
                                0xa32 (size before relaxing)
 .debug_str     0x0000844c      0x188 C:\Users\Administrator\AppData\Local\Temp\VMBuilds\LoRa_Roll_Film\stm32_genericSTM32F103R\Release/core.a(ext_interrupts.cpp.o)
                                0xc42 (size before relaxing)
 .debug_str     0x000085d4      0xf21 C:\Users\Administrator\AppData\Local\Temp\VMBuilds\LoRa_Roll_Film\stm32_genericSTM32F103R\Release/core.a(HardwareSerial.cpp.o)
                               0x1bc7 (size before relaxing)
 .debug_str     0x000094f5      0x18f C:\Users\Administrator\AppData\Local\Temp\VMBuilds\LoRa_Roll_Film\stm32_genericSTM32F103R\Release/core.a(HardwareTimer.cpp.o)
                               0x1590 (size before relaxing)
 .debug_str     0x00009684       0x5f C:\Users\Administrator\AppData\Local\Temp\VMBuilds\LoRa_Roll_Film\stm32_genericSTM32F103R\Release/core.a(main.cpp.o)
                                0x18f (size before relaxing)
 .debug_str     0x000096e3      0x37a C:\Users\Administrator\AppData\Local\Temp\VMBuilds\LoRa_Roll_Film\stm32_genericSTM32F103R\Release/core.a(Print.cpp.o)
                                0xf9f (size before relaxing)
 .debug_str     0x00009a5d       0x54 C:\Users\Administrator\AppData\Local\Temp\VMBuilds\LoRa_Roll_Film\stm32_genericSTM32F103R\Release/core.a(wirish_analog.cpp.o)
                                0xa71 (size before relaxing)
 .debug_str     0x00009ab1       0x63 C:\Users\Administrator\AppData\Local\Temp\VMBuilds\LoRa_Roll_Film\stm32_genericSTM32F103R\Release/core.a(wirish_digital.cpp.o)
                                0xab7 (size before relaxing)
 .debug_str     0x00009b14       0xc2 C:\Users\Administrator\AppData\Local\Temp\VMBuilds\LoRa_Roll_Film\stm32_genericSTM32F103R\Release/core.a(wirish_math.cpp.o)
                                0x2b6 (size before relaxing)
 .debug_str     0x00009bd6       0x61 C:\Users\Administrator\AppData\Local\Temp\VMBuilds\LoRa_Roll_Film\stm32_genericSTM32F103R\Release/core.a(wirish_time.cpp.o)
                                0x2ec (size before relaxing)
 .debug_str     0x00009c37       0x6b C:\Users\Administrator\AppData\Local\Temp\VMBuilds\LoRa_Roll_Film\stm32_genericSTM32F103R\Release/core.a(wirish_digital_f1.cpp.o)
                                0xc2a (size before relaxing)
 .debug_str     0x00009ca2       0x52 C:\Users\Administrator\AppData\Local\Temp\VMBuilds\LoRa_Roll_Film\stm32_genericSTM32F103R\Release/core.a(hooks.c.o)
                                0x11c (size before relaxing)
 .debug_str     0x00009cf4      0x13a C:\Users\Administrator\AppData\Local\Temp\VMBuilds\LoRa_Roll_Film\stm32_genericSTM32F103R\Release/core.a(exti.c.o)
                                0x930 (size before relaxing)
 .debug_str     0x00009e2e       0x55 C:\Users\Administrator\AppData\Local\Temp\VMBuilds\LoRa_Roll_Film\stm32_genericSTM32F103R\Release/core.a(exti_f1.c.o)
                                0x2db (size before relaxing)
 .debug_str     0x00009e83       0x52 C:\Users\Administrator\AppData\Local\Temp\VMBuilds\LoRa_Roll_Film\stm32_genericSTM32F103R\Release/core.a(gpio.c.o)
                                0x43e (size before relaxing)
 .debug_str     0x00009ed5       0xa4 C:\Users\Administrator\AppData\Local\Temp\VMBuilds\LoRa_Roll_Film\stm32_genericSTM32F103R\Release/core.a(usart.c.o)
                                0x9c6 (size before relaxing)
 .debug_str     0x00009f79       0x67 C:\Users\Administrator\AppData\Local\Temp\VMBuilds\LoRa_Roll_Film\stm32_genericSTM32F103R\Release/core.a(cxxabi-compat.cpp.o)
                                0x166 (size before relaxing)

.debug_loc      0x00000000     0xcc7f
 *(.debug_loc)
 .debug_loc     0x00000000       0x45 LoRa_Roll_Film.cpp.o
 .debug_loc     0x00000045      0x250 User_Clock.c.o
 .debug_loc     0x00000295      0x10e AT24CXX.cpp.o
 .debug_loc     0x000003a3      0x9fa BCD_CON.cpp.o
 .debug_loc     0x00000d9d      0x955 Command_Analysis.cpp.o
 .debug_loc     0x000016f2      0x133 fun_periph.cpp.o
 .debug_loc     0x00001825      0x2d8 i2c.cpp.o
 .debug_loc     0x00001afd       0x21 IAP.cpp.o
 .debug_loc     0x00001b1e     0x10b6 LoRa.cpp.o
 .debug_loc     0x00002bd4     0x1945 Memory.cpp.o
 .debug_loc     0x00004519     0x1cc1 Motor.cpp.o
 .debug_loc     0x000061da       0xd7 Private_RTC.cpp.o
 .debug_loc     0x000062b1      0x125 public.cpp.o
 .debug_loc     0x000063d6      0xbcb receipt.cpp.o
 .debug_loc     0x00006fa1       0xa8 User_CRC8.cpp.o
 .debug_loc     0x00007049      0x433 RTClock\RTClock.cpp.o
 .debug_loc     0x0000747c      0x431 RTClock\utility\rtc_util.c.o
 .debug_loc     0x000078ad      0x246 C:\Users\Administrator\AppData\Local\Temp\VMBCore\arduino16x\a25b0c93d50495b56da79188cbb05a7a\variant\boards.cpp.o
 .debug_loc     0x00007af3       0xa5 C:\Users\Administrator\AppData\Local\Temp\VMBCore\arduino16x\a25b0c93d50495b56da79188cbb05a7a\variant\start_c.c.o
 .debug_loc     0x00007b98      0x38a C:\Users\Administrator\AppData\Local\Temp\VMBCore\arduino16x\a25b0c93d50495b56da79188cbb05a7a\variant\syscalls.c.o
 .debug_loc     0x00007f22      0x145 C:\Users\Administrator\AppData\Local\Temp\VMBuilds\LoRa_Roll_Film\stm32_genericSTM32F103R\Release/core.a(adc.c.o)
 .debug_loc     0x00008067      0x313 C:\Users\Administrator\AppData\Local\Temp\VMBuilds\LoRa_Roll_Film\stm32_genericSTM32F103R\Release/core.a(adc_f1.c.o)
 .debug_loc     0x0000837a       0xc9 C:\Users\Administrator\AppData\Local\Temp\VMBuilds\LoRa_Roll_Film\stm32_genericSTM32F103R\Release/core.a(bkp_f1.c.o)
 .debug_loc     0x00008443       0x3f C:\Users\Administrator\AppData\Local\Temp\VMBuilds\LoRa_Roll_Film\stm32_genericSTM32F103R\Release/core.a(flash.c.o)
 .debug_loc     0x00008482      0x267 C:\Users\Administrator\AppData\Local\Temp\VMBuilds\LoRa_Roll_Film\stm32_genericSTM32F103R\Release/core.a(gpio_f1.c.o)
 .debug_loc     0x000086e9      0x121 C:\Users\Administrator\AppData\Local\Temp\VMBuilds\LoRa_Roll_Film\stm32_genericSTM32F103R\Release/core.a(nvic.c.o)
 .debug_loc     0x0000880a      0x131 C:\Users\Administrator\AppData\Local\Temp\VMBuilds\LoRa_Roll_Film\stm32_genericSTM32F103R\Release/core.a(rcc.c.o)
 .debug_loc     0x0000893b      0x335 C:\Users\Administrator\AppData\Local\Temp\VMBuilds\LoRa_Roll_Film\stm32_genericSTM32F103R\Release/core.a(rcc_f1.c.o)
 .debug_loc     0x00008c70      0xe74 C:\Users\Administrator\AppData\Local\Temp\VMBuilds\LoRa_Roll_Film\stm32_genericSTM32F103R\Release/core.a(timer.c.o)
 .debug_loc     0x00009ae4      0x2f6 C:\Users\Administrator\AppData\Local\Temp\VMBuilds\LoRa_Roll_Film\stm32_genericSTM32F103R\Release/core.a(usart_f1.c.o)
 .debug_loc     0x00009dda       0x3f C:\Users\Administrator\AppData\Local\Temp\VMBuilds\LoRa_Roll_Film\stm32_genericSTM32F103R\Release/core.a(usart_private.c.o)
 .debug_loc     0x00009e19      0x27f C:\Users\Administrator\AppData\Local\Temp\VMBuilds\LoRa_Roll_Film\stm32_genericSTM32F103R\Release/core.a(util.c.o)
 .debug_loc     0x0000a098      0x1d5 C:\Users\Administrator\AppData\Local\Temp\VMBuilds\LoRa_Roll_Film\stm32_genericSTM32F103R\Release/core.a(ext_interrupts.cpp.o)
 .debug_loc     0x0000a26d      0x3dc C:\Users\Administrator\AppData\Local\Temp\VMBuilds\LoRa_Roll_Film\stm32_genericSTM32F103R\Release/core.a(HardwareSerial.cpp.o)
 .debug_loc     0x0000a649      0x6a3 C:\Users\Administrator\AppData\Local\Temp\VMBuilds\LoRa_Roll_Film\stm32_genericSTM32F103R\Release/core.a(HardwareTimer.cpp.o)
 .debug_loc     0x0000acec     0x111d C:\Users\Administrator\AppData\Local\Temp\VMBuilds\LoRa_Roll_Film\stm32_genericSTM32F103R\Release/core.a(Print.cpp.o)
 .debug_loc     0x0000be09       0x3f C:\Users\Administrator\AppData\Local\Temp\VMBuilds\LoRa_Roll_Film\stm32_genericSTM32F103R\Release/core.a(wirish_analog.cpp.o)
 .debug_loc     0x0000be48       0x7c C:\Users\Administrator\AppData\Local\Temp\VMBuilds\LoRa_Roll_Film\stm32_genericSTM32F103R\Release/core.a(wirish_digital.cpp.o)
 .debug_loc     0x0000bec4       0xff C:\Users\Administrator\AppData\Local\Temp\VMBuilds\LoRa_Roll_Film\stm32_genericSTM32F103R\Release/core.a(wirish_math.cpp.o)
 .debug_loc     0x0000bfc3       0x78 C:\Users\Administrator\AppData\Local\Temp\VMBuilds\LoRa_Roll_Film\stm32_genericSTM32F103R\Release/core.a(wirish_time.cpp.o)
 .debug_loc     0x0000c03b      0x137 C:\Users\Administrator\AppData\Local\Temp\VMBuilds\LoRa_Roll_Film\stm32_genericSTM32F103R\Release/core.a(wirish_digital_f1.cpp.o)
 .debug_loc     0x0000c172      0x6f0 C:\Users\Administrator\AppData\Local\Temp\VMBuilds\LoRa_Roll_Film\stm32_genericSTM32F103R\Release/core.a(exti.c.o)
 .debug_loc     0x0000c862       0x42 C:\Users\Administrator\AppData\Local\Temp\VMBuilds\LoRa_Roll_Film\stm32_genericSTM32F103R\Release/core.a(exti_f1.c.o)
 .debug_loc     0x0000c8a4       0x2c C:\Users\Administrator\AppData\Local\Temp\VMBuilds\LoRa_Roll_Film\stm32_genericSTM32F103R\Release/core.a(gpio.c.o)
 .debug_loc     0x0000c8d0      0x3af C:\Users\Administrator\AppData\Local\Temp\VMBuilds\LoRa_Roll_Film\stm32_genericSTM32F103R\Release/core.a(usart.c.o)

.debug_macinfo
 *(.debug_macinfo)

.debug_weaknames
 *(.debug_weaknames)

.debug_funcnames
 *(.debug_funcnames)

.debug_typenames
 *(.debug_typenames)

.debug_varnames
 *(.debug_varnames)

.note.gnu.arm.ident
 *(.note.gnu.arm.ident)

.ARM.attributes
                0x00000000       0x29
 *(.ARM.attributes)
 .ARM.attributes
                0x00000000       0x1d c:/users/administrator/appdata/local/arduino15/packages/arduino/tools/arm-none-eabi-gcc/4.8.3-2014q1/bin/../lib/gcc/arm-none-eabi/4.8.3/armv7-m/crti.o
 .ARM.attributes
                0x0000001d       0x2d c:/users/administrator/appdata/local/arduino15/packages/arduino/tools/arm-none-eabi-gcc/4.8.3-2014q1/bin/../lib/gcc/arm-none-eabi/4.8.3/armv7-m/crtbegin.o
 .ARM.attributes
                0x0000004a       0x1b c:/users/administrator/appdata/local/arduino15/packages/arduino/tools/arm-none-eabi-gcc/4.8.3-2014q1/bin/../lib/gcc/arm-none-eabi/4.8.3/../../../../arm-none-eabi/lib/armv7-m/crt0.o
 .ARM.attributes
                0x00000065       0x33 LoRa_Roll_Film.cpp.o
 .ARM.attributes
                0x00000098       0x33 User_Clock.c.o
 .ARM.attributes
                0x000000cb       0x33 AT24CXX.cpp.o
 .ARM.attributes
                0x000000fe       0x33 BCD_CON.cpp.o
 .ARM.attributes
                0x00000131       0x33 Command_Analysis.cpp.o
 .ARM.attributes
                0x00000164       0x33 fun_periph.cpp.o
 .ARM.attributes
                0x00000197       0x33 i2c.cpp.o
 .ARM.attributes
                0x000001ca       0x33 IAP.cpp.o
 .ARM.attributes
                0x000001fd       0x33 LoRa.cpp.o
 .ARM.attributes
                0x00000230       0x33 Memory.cpp.o
 .ARM.attributes
                0x00000263       0x33 Motor.cpp.o
 .ARM.attributes
                0x00000296       0x33 Private_RTC.cpp.o
 .ARM.attributes
                0x000002c9       0x33 Private_Timer.cpp.o
 .ARM.attributes
                0x000002fc       0x33 public.cpp.o
 .ARM.attributes
                0x0000032f       0x33 receipt.cpp.o
 .ARM.attributes
                0x00000362       0x33 Security.cpp.o
 .ARM.attributes
                0x00000395       0x33 User_CRC8.cpp.o
 .ARM.attributes
                0x000003c8       0x33 RTClock\RTClock.cpp.o
 .ARM.attributes
                0x000003fb       0x33 RTClock\utility\rtc_util.c.o
 .ARM.attributes
                0x0000042e       0x33 C:\Users\Administrator\AppData\Local\Temp\VMBCore\arduino16x\a25b0c93d50495b56da79188cbb05a7a\variant\board.cpp.o
 .ARM.attributes
                0x00000461       0x33 C:\Users\Administrator\AppData\Local\Temp\VMBCore\arduino16x\a25b0c93d50495b56da79188cbb05a7a\variant\boards.cpp.o
 .ARM.attributes
                0x00000494       0x33 C:\Users\Administrator\AppData\Local\Temp\VMBCore\arduino16x\a25b0c93d50495b56da79188cbb05a7a\variant\boards_setup.cpp.o
 .ARM.attributes
                0x000004c7       0x1b C:\Users\Administrator\AppData\Local\Temp\VMBCore\arduino16x\a25b0c93d50495b56da79188cbb05a7a\variant\start.S.o
 .ARM.attributes
                0x000004e2       0x33 C:\Users\Administrator\AppData\Local\Temp\VMBCore\arduino16x\a25b0c93d50495b56da79188cbb05a7a\variant\start_c.c.o
 .ARM.attributes
                0x00000515       0x33 C:\Users\Administrator\AppData\Local\Temp\VMBCore\arduino16x\a25b0c93d50495b56da79188cbb05a7a\variant\syscalls.c.o
 .ARM.attributes
                0x00000548       0x1b C:\Users\Administrator\AppData\Local\Temp\VMBuilds\LoRa_Roll_Film\stm32_genericSTM32F103R\Release/core.a(exc.S.o)
 .ARM.attributes
                0x00000563       0x1b C:\Users\Administrator\AppData\Local\Temp\VMBuilds\LoRa_Roll_Film\stm32_genericSTM32F103R\Release/core.a(isrs.S.o)
 .ARM.attributes
                0x0000057e       0x1b C:\Users\Administrator\AppData\Local\Temp\VMBuilds\LoRa_Roll_Film\stm32_genericSTM32F103R\Release/core.a(vector_table.S.o)
 .ARM.attributes
                0x00000599       0x33 C:\Users\Administrator\AppData\Local\Temp\VMBuilds\LoRa_Roll_Film\stm32_genericSTM32F103R\Release/core.a(adc.c.o)
 .ARM.attributes
                0x000005cc       0x33 C:\Users\Administrator\AppData\Local\Temp\VMBuilds\LoRa_Roll_Film\stm32_genericSTM32F103R\Release/core.a(adc_f1.c.o)
 .ARM.attributes
                0x000005ff       0x33 C:\Users\Administrator\AppData\Local\Temp\VMBuilds\LoRa_Roll_Film\stm32_genericSTM32F103R\Release/core.a(bkp_f1.c.o)
 .ARM.attributes
                0x00000632       0x33 C:\Users\Administrator\AppData\Local\Temp\VMBuilds\LoRa_Roll_Film\stm32_genericSTM32F103R\Release/core.a(flash.c.o)
 .ARM.attributes
                0x00000665       0x33 C:\Users\Administrator\AppData\Local\Temp\VMBuilds\LoRa_Roll_Film\stm32_genericSTM32F103R\Release/core.a(gpio_f1.c.o)
 .ARM.attributes
                0x00000698       0x33 C:\Users\Administrator\AppData\Local\Temp\VMBuilds\LoRa_Roll_Film\stm32_genericSTM32F103R\Release/core.a(iwdg.c.o)
 .ARM.attributes
                0x000006cb       0x33 C:\Users\Administrator\AppData\Local\Temp\VMBuilds\LoRa_Roll_Film\stm32_genericSTM32F103R\Release/core.a(nvic.c.o)
 .ARM.attributes
                0x000006fe       0x33 C:\Users\Administrator\AppData\Local\Temp\VMBuilds\LoRa_Roll_Film\stm32_genericSTM32F103R\Release/core.a(rcc.c.o)
 .ARM.attributes
                0x00000731       0x33 C:\Users\Administrator\AppData\Local\Temp\VMBuilds\LoRa_Roll_Film\stm32_genericSTM32F103R\Release/core.a(rcc_f1.c.o)
 .ARM.attributes
                0x00000764       0x33 C:\Users\Administrator\AppData\Local\Temp\VMBuilds\LoRa_Roll_Film\stm32_genericSTM32F103R\Release/core.a(systick.c.o)
 .ARM.attributes
                0x00000797       0x33 C:\Users\Administrator\AppData\Local\Temp\VMBuilds\LoRa_Roll_Film\stm32_genericSTM32F103R\Release/core.a(timer.c.o)
 .ARM.attributes
                0x000007ca       0x33 C:\Users\Administrator\AppData\Local\Temp\VMBuilds\LoRa_Roll_Film\stm32_genericSTM32F103R\Release/core.a(usart_f1.c.o)
 .ARM.attributes
                0x000007fd       0x33 C:\Users\Administrator\AppData\Local\Temp\VMBuilds\LoRa_Roll_Film\stm32_genericSTM32F103R\Release/core.a(usart_private.c.o)
 .ARM.attributes
                0x00000830       0x33 C:\Users\Administrator\AppData\Local\Temp\VMBuilds\LoRa_Roll_Film\stm32_genericSTM32F103R\Release/core.a(util.c.o)
 .ARM.attributes
                0x00000863       0x33 C:\Users\Administrator\AppData\Local\Temp\VMBuilds\LoRa_Roll_Film\stm32_genericSTM32F103R\Release/core.a(ext_interrupts.cpp.o)
 .ARM.attributes
                0x00000896       0x33 C:\Users\Administrator\AppData\Local\Temp\VMBuilds\LoRa_Roll_Film\stm32_genericSTM32F103R\Release/core.a(HardwareSerial.cpp.o)
 .ARM.attributes
                0x000008c9       0x33 C:\Users\Administrator\AppData\Local\Temp\VMBuilds\LoRa_Roll_Film\stm32_genericSTM32F103R\Release/core.a(HardwareTimer.cpp.o)
 .ARM.attributes
                0x000008fc       0x33 C:\Users\Administrator\AppData\Local\Temp\VMBuilds\LoRa_Roll_Film\stm32_genericSTM32F103R\Release/core.a(main.cpp.o)
 .ARM.attributes
                0x0000092f       0x33 C:\Users\Administrator\AppData\Local\Temp\VMBuilds\LoRa_Roll_Film\stm32_genericSTM32F103R\Release/core.a(Print.cpp.o)
 .ARM.attributes
                0x00000962       0x33 C:\Users\Administrator\AppData\Local\Temp\VMBuilds\LoRa_Roll_Film\stm32_genericSTM32F103R\Release/core.a(wirish_analog.cpp.o)
 .ARM.attributes
                0x00000995       0x33 C:\Users\Administrator\AppData\Local\Temp\VMBuilds\LoRa_Roll_Film\stm32_genericSTM32F103R\Release/core.a(wirish_digital.cpp.o)
 .ARM.attributes
                0x000009c8       0x33 C:\Users\Administrator\AppData\Local\Temp\VMBuilds\LoRa_Roll_Film\stm32_genericSTM32F103R\Release/core.a(wirish_math.cpp.o)
 .ARM.attributes
                0x000009fb       0x33 C:\Users\Administrator\AppData\Local\Temp\VMBuilds\LoRa_Roll_Film\stm32_genericSTM32F103R\Release/core.a(wirish_time.cpp.o)
 .ARM.attributes
                0x00000a2e       0x33 C:\Users\Administrator\AppData\Local\Temp\VMBuilds\LoRa_Roll_Film\stm32_genericSTM32F103R\Release/core.a(wirish_digital_f1.cpp.o)
 .ARM.attributes
                0x00000a61       0x33 C:\Users\Administrator\AppData\Local\Temp\VMBuilds\LoRa_Roll_Film\stm32_genericSTM32F103R\Release/core.a(hooks.c.o)
 .ARM.attributes
                0x00000a94       0x33 C:\Users\Administrator\AppData\Local\Temp\VMBuilds\LoRa_Roll_Film\stm32_genericSTM32F103R\Release/core.a(exti.c.o)
 .ARM.attributes
                0x00000ac7       0x33 C:\Users\Administrator\AppData\Local\Temp\VMBuilds\LoRa_Roll_Film\stm32_genericSTM32F103R\Release/core.a(exti_f1.c.o)
 .ARM.attributes
                0x00000afa       0x33 C:\Users\Administrator\AppData\Local\Temp\VMBuilds\LoRa_Roll_Film\stm32_genericSTM32F103R\Release/core.a(gpio.c.o)
 .ARM.attributes
                0x00000b2d       0x33 C:\Users\Administrator\AppData\Local\Temp\VMBuilds\LoRa_Roll_Film\stm32_genericSTM32F103R\Release/core.a(usart.c.o)
 .ARM.attributes
                0x00000b60       0x33 C:\Users\Administrator\AppData\Local\Temp\VMBuilds\LoRa_Roll_Film\stm32_genericSTM32F103R\Release/core.a(cxxabi-compat.cpp.o)
 .ARM.attributes
                0x00000b93       0x2d c:/users/administrator/appdata/local/arduino15/packages/arduino/tools/arm-none-eabi-gcc/4.8.3-2014q1/bin/../lib/gcc/arm-none-eabi/4.8.3/../../../../arm-none-eabi/lib/armv7-m\libm.a(lib_a-w_pow.o)
 .ARM.attributes
                0x00000bc0       0x2d c:/users/administrator/appdata/local/arduino15/packages/arduino/tools/arm-none-eabi-gcc/4.8.3-2014q1/bin/../lib/gcc/arm-none-eabi/4.8.3/../../../../arm-none-eabi/lib/armv7-m\libm.a(lib_a-e_pow.o)
 .ARM.attributes
                0x00000bed       0x2d c:/users/administrator/appdata/local/arduino15/packages/arduino/tools/arm-none-eabi-gcc/4.8.3-2014q1/bin/../lib/gcc/arm-none-eabi/4.8.3/../../../../arm-none-eabi/lib/armv7-m\libm.a(lib_a-e_sqrt.o)
 .ARM.attributes
                0x00000c1a       0x2d c:/users/administrator/appdata/local/arduino15/packages/arduino/tools/arm-none-eabi-gcc/4.8.3-2014q1/bin/../lib/gcc/arm-none-eabi/4.8.3/../../../../arm-none-eabi/lib/armv7-m\libm.a(lib_a-s_fabs.o)
 .ARM.attributes
                0x00000c47       0x2d c:/users/administrator/appdata/local/arduino15/packages/arduino/tools/arm-none-eabi-gcc/4.8.3-2014q1/bin/../lib/gcc/arm-none-eabi/4.8.3/../../../../arm-none-eabi/lib/armv7-m\libm.a(lib_a-s_finite.o)
 .ARM.attributes
                0x00000c74       0x2d c:/users/administrator/appdata/local/arduino15/packages/arduino/tools/arm-none-eabi-gcc/4.8.3-2014q1/bin/../lib/gcc/arm-none-eabi/4.8.3/../../../../arm-none-eabi/lib/armv7-m\libm.a(lib_a-s_fpclassify.o)
 .ARM.attributes
                0x00000ca1       0x2d c:/users/administrator/appdata/local/arduino15/packages/arduino/tools/arm-none-eabi-gcc/4.8.3-2014q1/bin/../lib/gcc/arm-none-eabi/4.8.3/../../../../arm-none-eabi/lib/armv7-m\libm.a(lib_a-s_lib_ver.o)
 .ARM.attributes
                0x00000cce       0x2d c:/users/administrator/appdata/local/arduino15/packages/arduino/tools/arm-none-eabi-gcc/4.8.3-2014q1/bin/../lib/gcc/arm-none-eabi/4.8.3/../../../../arm-none-eabi/lib/armv7-m\libm.a(lib_a-s_matherr.o)
 .ARM.attributes
                0x00000cfb       0x2d c:/users/administrator/appdata/local/arduino15/packages/arduino/tools/arm-none-eabi-gcc/4.8.3-2014q1/bin/../lib/gcc/arm-none-eabi/4.8.3/../../../../arm-none-eabi/lib/armv7-m\libm.a(lib_a-s_nan.o)
 .ARM.attributes
                0x00000d28       0x2d c:/users/administrator/appdata/local/arduino15/packages/arduino/tools/arm-none-eabi-gcc/4.8.3-2014q1/bin/../lib/gcc/arm-none-eabi/4.8.3/../../../../arm-none-eabi/lib/armv7-m\libm.a(lib_a-s_rint.o)
 .ARM.attributes
                0x00000d55       0x2d c:/users/administrator/appdata/local/arduino15/packages/arduino/tools/arm-none-eabi-gcc/4.8.3-2014q1/bin/../lib/gcc/arm-none-eabi/4.8.3/../../../../arm-none-eabi/lib/armv7-m\libm.a(lib_a-s_scalbn.o)
 .ARM.attributes
                0x00000d82       0x2d c:/users/administrator/appdata/local/arduino15/packages/arduino/tools/arm-none-eabi-gcc/4.8.3-2014q1/bin/../lib/gcc/arm-none-eabi/4.8.3/../../../../arm-none-eabi/lib/armv7-m\libm.a(lib_a-s_copysign.o)
 .ARM.attributes
                0x00000daf       0x1d c:/users/administrator/appdata/local/arduino15/packages/arduino/tools/arm-none-eabi-gcc/4.8.3-2014q1/bin/../lib/gcc/arm-none-eabi/4.8.3/armv7-m\libgcc.a(_arm_addsubdf3.o)
 .ARM.attributes
                0x00000dcc       0x1d c:/users/administrator/appdata/local/arduino15/packages/arduino/tools/arm-none-eabi-gcc/4.8.3-2014q1/bin/../lib/gcc/arm-none-eabi/4.8.3/armv7-m\libgcc.a(_arm_muldivdf3.o)
 .ARM.attributes
                0x00000de9       0x1d c:/users/administrator/appdata/local/arduino15/packages/arduino/tools/arm-none-eabi-gcc/4.8.3-2014q1/bin/../lib/gcc/arm-none-eabi/4.8.3/armv7-m\libgcc.a(_arm_cmpdf2.o)
 .ARM.attributes
                0x00000e06       0x1d c:/users/administrator/appdata/local/arduino15/packages/arduino/tools/arm-none-eabi-gcc/4.8.3-2014q1/bin/../lib/gcc/arm-none-eabi/4.8.3/armv7-m\libgcc.a(_arm_fixdfsi.o)
 .ARM.attributes
                0x00000e23       0x1d c:/users/administrator/appdata/local/arduino15/packages/arduino/tools/arm-none-eabi-gcc/4.8.3-2014q1/bin/../lib/gcc/arm-none-eabi/4.8.3/armv7-m\libgcc.a(_arm_fixunsdfsi.o)
 .ARM.attributes
                0x00000e40       0x1d c:/users/administrator/appdata/local/arduino15/packages/arduino/tools/arm-none-eabi-gcc/4.8.3-2014q1/bin/../lib/gcc/arm-none-eabi/4.8.3/armv7-m\libgcc.a(_arm_truncdfsf2.o)
 .ARM.attributes
                0x00000e5d       0x1d c:/users/administrator/appdata/local/arduino15/packages/arduino/tools/arm-none-eabi-gcc/4.8.3-2014q1/bin/../lib/gcc/arm-none-eabi/4.8.3/armv7-m\libgcc.a(_arm_addsubsf3.o)
 .ARM.attributes
                0x00000e7a       0x1d c:/users/administrator/appdata/local/arduino15/packages/arduino/tools/arm-none-eabi-gcc/4.8.3-2014q1/bin/../lib/gcc/arm-none-eabi/4.8.3/armv7-m\libgcc.a(_arm_muldivsf3.o)
 .ARM.attributes
                0x00000e97       0x1d c:/users/administrator/appdata/local/arduino15/packages/arduino/tools/arm-none-eabi-gcc/4.8.3-2014q1/bin/../lib/gcc/arm-none-eabi/4.8.3/armv7-m\libgcc.a(_arm_cmpsf2.o)
 .ARM.attributes
                0x00000eb4       0x1d c:/users/administrator/appdata/local/arduino15/packages/arduino/tools/arm-none-eabi-gcc/4.8.3-2014q1/bin/../lib/gcc/arm-none-eabi/4.8.3/armv7-m\libgcc.a(_arm_fixunssfsi.o)
 .ARM.attributes
                0x00000ed1       0x1d c:/users/administrator/appdata/local/arduino15/packages/arduino/tools/arm-none-eabi-gcc/4.8.3-2014q1/bin/../lib/gcc/arm-none-eabi/4.8.3/armv7-m\libgcc.a(_aeabi_uldivmod.o)
 .ARM.attributes
                0x00000eee       0x2d c:/users/administrator/appdata/local/arduino15/packages/arduino/tools/arm-none-eabi-gcc/4.8.3-2014q1/bin/../lib/gcc/arm-none-eabi/4.8.3/armv7-m\libgcc.a(_fixdfdi.o)
 .ARM.attributes
                0x00000f1b       0x2d c:/users/administrator/appdata/local/arduino15/packages/arduino/tools/arm-none-eabi-gcc/4.8.3-2014q1/bin/../lib/gcc/arm-none-eabi/4.8.3/armv7-m\libgcc.a(_fixunsdfdi.o)
 .ARM.attributes
                0x00000f48       0x2d c:/users/administrator/appdata/local/arduino15/packages/arduino/tools/arm-none-eabi-gcc/4.8.3-2014q1/bin/../lib/gcc/arm-none-eabi/4.8.3/armv7-m\libgcc.a(bpabi.o)
 .ARM.attributes
                0x00000f75       0x1d c:/users/administrator/appdata/local/arduino15/packages/arduino/tools/arm-none-eabi-gcc/4.8.3-2014q1/bin/../lib/gcc/arm-none-eabi/4.8.3/armv7-m\libgcc.a(_dvmd_tls.o)
 .ARM.attributes
                0x00000f92       0x2d c:/users/administrator/appdata/local/arduino15/packages/arduino/tools/arm-none-eabi-gcc/4.8.3-2014q1/bin/../lib/gcc/arm-none-eabi/4.8.3/armv7-m\libgcc.a(_divdi3.o)
 .ARM.attributes
                0x00000fbf       0x2d c:/users/administrator/appdata/local/arduino15/packages/arduino/tools/arm-none-eabi-gcc/4.8.3-2014q1/bin/../lib/gcc/arm-none-eabi/4.8.3/armv7-m\libgcc.a(_udivdi3.o)
 .ARM.attributes
                0x00000fec       0x2d c:/users/administrator/appdata/local/arduino15/packages/arduino/tools/arm-none-eabi-gcc/4.8.3-2014q1/bin/../lib/gcc/arm-none-eabi/4.8.3/../../../../arm-none-eabi/lib/armv7-m\libc.a(lib_a-errno.o)
 .ARM.attributes
                0x00001019       0x2d c:/users/administrator/appdata/local/arduino15/packages/arduino/tools/arm-none-eabi-gcc/4.8.3-2014q1/bin/../lib/gcc/arm-none-eabi/4.8.3/../../../../arm-none-eabi/lib/armv7-m\libc.a(lib_a-exit.o)
 .ARM.attributes
                0x00001046       0x2d c:/users/administrator/appdata/local/arduino15/packages/arduino/tools/arm-none-eabi-gcc/4.8.3-2014q1/bin/../lib/gcc/arm-none-eabi/4.8.3/../../../../arm-none-eabi/lib/armv7-m\libc.a(lib_a-gmtime.o)
 .ARM.attributes
                0x00001073       0x2d c:/users/administrator/appdata/local/arduino15/packages/arduino/tools/arm-none-eabi-gcc/4.8.3-2014q1/bin/../lib/gcc/arm-none-eabi/4.8.3/../../../../arm-none-eabi/lib/armv7-m\libc.a(lib_a-gmtime_r.o)
 .ARM.attributes
                0x000010a0       0x2d c:/users/administrator/appdata/local/arduino15/packages/arduino/tools/arm-none-eabi-gcc/4.8.3-2014q1/bin/../lib/gcc/arm-none-eabi/4.8.3/../../../../arm-none-eabi/lib/armv7-m\libc.a(lib_a-impure.o)
 .ARM.attributes
                0x000010cd       0x2d c:/users/administrator/appdata/local/arduino15/packages/arduino/tools/arm-none-eabi-gcc/4.8.3-2014q1/bin/../lib/gcc/arm-none-eabi/4.8.3/../../../../arm-none-eabi/lib/armv7-m\libc.a(lib_a-init.o)
 .ARM.attributes
                0x000010fa       0x2d c:/users/administrator/appdata/local/arduino15/packages/arduino/tools/arm-none-eabi-gcc/4.8.3-2014q1/bin/../lib/gcc/arm-none-eabi/4.8.3/../../../../arm-none-eabi/lib/armv7-m\libc.a(lib_a-memset.o)
 .ARM.attributes
                0x00001127       0x2d c:/users/administrator/appdata/local/arduino15/packages/arduino/tools/arm-none-eabi-gcc/4.8.3-2014q1/bin/../lib/gcc/arm-none-eabi/4.8.3/../../../../arm-none-eabi/lib/armv7-m\libc.a(lib_a-mktime.o)
 .ARM.attributes
                0x00001154       0x2d c:/users/administrator/appdata/local/arduino15/packages/arduino/tools/arm-none-eabi-gcc/4.8.3-2014q1/bin/../lib/gcc/arm-none-eabi/4.8.3/../../../../arm-none-eabi/lib/armv7-m\libc.a(lib_a-mktm_r.o)
 .ARM.attributes
                0x00001181       0x2d c:/users/administrator/appdata/local/arduino15/packages/arduino/tools/arm-none-eabi-gcc/4.8.3-2014q1/bin/../lib/gcc/arm-none-eabi/4.8.3/../../../../arm-none-eabi/lib/armv7-m\libc.a(lib_a-rand.o)
 .ARM.attributes
                0x000011ae       0x2d c:/users/administrator/appdata/local/arduino15/packages/arduino/tools/arm-none-eabi-gcc/4.8.3-2014q1/bin/../lib/gcc/arm-none-eabi/4.8.3/../../../../arm-none-eabi/lib/armv7-m\libc.a(lib_a-strlen.o)
 .ARM.attributes
                0x000011db       0x2d c:/users/administrator/appdata/local/arduino15/packages/arduino/tools/arm-none-eabi-gcc/4.8.3-2014q1/bin/../lib/gcc/arm-none-eabi/4.8.3/../../../../arm-none-eabi/lib/armv7-m\libc.a(lib_a-tzlock.o)
 .ARM.attributes
                0x00001208       0x2d c:/users/administrator/appdata/local/arduino15/packages/arduino/tools/arm-none-eabi-gcc/4.8.3-2014q1/bin/../lib/gcc/arm-none-eabi/4.8.3/../../../../arm-none-eabi/lib/armv7-m\libc.a(lib_a-tzvars.o)
 .ARM.attributes
                0x00001235       0x2d c:/users/administrator/appdata/local/arduino15/packages/arduino/tools/arm-none-eabi-gcc/4.8.3-2014q1/bin/../lib/gcc/arm-none-eabi/4.8.3/../../../../arm-none-eabi/lib/armv7-m\libc.a(lib_a-__call_atexit.o)
 .ARM.attributes
                0x00001262       0x2d c:/users/administrator/appdata/local/arduino15/packages/arduino/tools/arm-none-eabi-gcc/4.8.3-2014q1/bin/../lib/gcc/arm-none-eabi/4.8.3/../../../../arm-none-eabi/lib/armv7-m\libc.a(lib_a-atexit.o)
 .ARM.attributes
                0x0000128f       0x2d c:/users/administrator/appdata/local/arduino15/packages/arduino/tools/arm-none-eabi-gcc/4.8.3-2014q1/bin/../lib/gcc/arm-none-eabi/4.8.3/../../../../arm-none-eabi/lib/armv7-m\libc.a(lib_a-div.o)
 .ARM.attributes
                0x000012bc       0x2d c:/users/administrator/appdata/local/arduino15/packages/arduino/tools/arm-none-eabi-gcc/4.8.3-2014q1/bin/../lib/gcc/arm-none-eabi/4.8.3/../../../../arm-none-eabi/lib/armv7-m\libc.a(lib_a-fini.o)
 .ARM.attributes
                0x000012e9       0x2d c:/users/administrator/appdata/local/arduino15/packages/arduino/tools/arm-none-eabi-gcc/4.8.3-2014q1/bin/../lib/gcc/arm-none-eabi/4.8.3/../../../../arm-none-eabi/lib/armv7-m\libc.a(lib_a-gettzinfo.o)
 .ARM.attributes
                0x00001316       0x2d c:/users/administrator/appdata/local/arduino15/packages/arduino/tools/arm-none-eabi-gcc/4.8.3-2014q1/bin/../lib/gcc/arm-none-eabi/4.8.3/../../../../arm-none-eabi/lib/armv7-m\libc.a(lib_a-__atexit.o)
 .ARM.attributes
                0x00001343       0x2d c:/users/administrator/appdata/local/arduino15/packages/arduino/tools/arm-none-eabi-gcc/4.8.3-2014q1/bin/../lib/gcc/arm-none-eabi/4.8.3/armv7-m/crtend.o
 .ARM.attributes
                0x00001370       0x1d c:/users/administrator/appdata/local/arduino15/packages/arduino/tools/arm-none-eabi-gcc/4.8.3-2014q1/bin/../lib/gcc/arm-none-eabi/4.8.3/armv7-m/crtn.o

/DISCARD/
 *(.note.GNU-stack)
OUTPUT(C:\Users\Administrator\AppData\Local\Temp\VMBuilds\LoRa_Roll_Film\stm32_genericSTM32F103R\Release/LoRa_Roll_Film.ino.elf elf32-littlearm)

.debug_ranges   0x00000000     0x2048
 .debug_ranges  0x00000000       0x88 LoRa_Roll_Film.cpp.o
 .debug_ranges  0x00000088       0x80 User_Clock.c.o
 .debug_ranges  0x00000108       0x20 AT24CXX.cpp.o
 .debug_ranges  0x00000128      0x100 BCD_CON.cpp.o
 .debug_ranges  0x00000228      0x110 Command_Analysis.cpp.o
 .debug_ranges  0x00000338       0x50 fun_periph.cpp.o
 .debug_ranges  0x00000388       0x58 i2c.cpp.o
 .debug_ranges  0x000003e0       0x18 IAP.cpp.o
 .debug_ranges  0x000003f8      0x188 LoRa.cpp.o
 .debug_ranges  0x00000580      0x458 Memory.cpp.o
 .debug_ranges  0x000009d8      0x320 Motor.cpp.o
 .debug_ranges  0x00000cf8       0x50 Private_RTC.cpp.o
 .debug_ranges  0x00000d48       0x48 Private_Timer.cpp.o
 .debug_ranges  0x00000d90       0x78 public.cpp.o
 .debug_ranges  0x00000e08       0xa8 receipt.cpp.o
 .debug_ranges  0x00000eb0       0x20 Security.cpp.o
 .debug_ranges  0x00000ed0       0x28 User_CRC8.cpp.o
 .debug_ranges  0x00000ef8       0xa8 RTClock\RTClock.cpp.o
 .debug_ranges  0x00000fa0      0x100 RTClock\utility\rtc_util.c.o
 .debug_ranges  0x000010a0       0x30 C:\Users\Administrator\AppData\Local\Temp\VMBCore\arduino16x\a25b0c93d50495b56da79188cbb05a7a\variant\board.cpp.o
 .debug_ranges  0x000010d0      0x160 C:\Users\Administrator\AppData\Local\Temp\VMBCore\arduino16x\a25b0c93d50495b56da79188cbb05a7a\variant\boards.cpp.o
 .debug_ranges  0x00001230       0x30 C:\Users\Administrator\AppData\Local\Temp\VMBCore\arduino16x\a25b0c93d50495b56da79188cbb05a7a\variant\boards_setup.cpp.o
 .debug_ranges  0x00001260       0x10 C:\Users\Administrator\AppData\Local\Temp\VMBCore\arduino16x\a25b0c93d50495b56da79188cbb05a7a\variant\start_c.c.o
 .debug_ranges  0x00001270       0x78 C:\Users\Administrator\AppData\Local\Temp\VMBCore\arduino16x\a25b0c93d50495b56da79188cbb05a7a\variant\syscalls.c.o
 .debug_ranges  0x000012e8       0x28 C:\Users\Administrator\AppData\Local\Temp\VMBuilds\LoRa_Roll_Film\stm32_genericSTM32F103R\Release/core.a(adc.c.o)
 .debug_ranges  0x00001310       0xc0 C:\Users\Administrator\AppData\Local\Temp\VMBuilds\LoRa_Roll_Film\stm32_genericSTM32F103R\Release/core.a(adc_f1.c.o)
 .debug_ranges  0x000013d0       0x38 C:\Users\Administrator\AppData\Local\Temp\VMBuilds\LoRa_Roll_Film\stm32_genericSTM32F103R\Release/core.a(bkp_f1.c.o)
 .debug_ranges  0x00001408       0x10 C:\Users\Administrator\AppData\Local\Temp\VMBuilds\LoRa_Roll_Film\stm32_genericSTM32F103R\Release/core.a(flash.c.o)
 .debug_ranges  0x00001418       0x30 C:\Users\Administrator\AppData\Local\Temp\VMBuilds\LoRa_Roll_Film\stm32_genericSTM32F103R\Release/core.a(gpio_f1.c.o)
 .debug_ranges  0x00001448       0x18 C:\Users\Administrator\AppData\Local\Temp\VMBuilds\LoRa_Roll_Film\stm32_genericSTM32F103R\Release/core.a(iwdg.c.o)
 .debug_ranges  0x00001460       0x40 C:\Users\Administrator\AppData\Local\Temp\VMBuilds\LoRa_Roll_Film\stm32_genericSTM32F103R\Release/core.a(nvic.c.o)
 .debug_ranges  0x000014a0       0x98 C:\Users\Administrator\AppData\Local\Temp\VMBuilds\LoRa_Roll_Film\stm32_genericSTM32F103R\Release/core.a(rcc.c.o)
 .debug_ranges  0x00001538       0xc8 C:\Users\Administrator\AppData\Local\Temp\VMBuilds\LoRa_Roll_Film\stm32_genericSTM32F103R\Release/core.a(rcc_f1.c.o)
 .debug_ranges  0x00001600       0x48 C:\Users\Administrator\AppData\Local\Temp\VMBuilds\LoRa_Roll_Film\stm32_genericSTM32F103R\Release/core.a(systick.c.o)
 .debug_ranges  0x00001648       0xd8 C:\Users\Administrator\AppData\Local\Temp\VMBuilds\LoRa_Roll_Film\stm32_genericSTM32F103R\Release/core.a(timer.c.o)
 .debug_ranges  0x00001720       0x78 C:\Users\Administrator\AppData\Local\Temp\VMBuilds\LoRa_Roll_Film\stm32_genericSTM32F103R\Release/core.a(usart_f1.c.o)
 .debug_ranges  0x00001798       0x10 C:\Users\Administrator\AppData\Local\Temp\VMBuilds\LoRa_Roll_Film\stm32_genericSTM32F103R\Release/core.a(usart_private.c.o)
 .debug_ranges  0x000017a8       0x58 C:\Users\Administrator\AppData\Local\Temp\VMBuilds\LoRa_Roll_Film\stm32_genericSTM32F103R\Release/core.a(util.c.o)
 .debug_ranges  0x00001800       0x98 C:\Users\Administrator\AppData\Local\Temp\VMBuilds\LoRa_Roll_Film\stm32_genericSTM32F103R\Release/core.a(ext_interrupts.cpp.o)
 .debug_ranges  0x00001898       0x88 C:\Users\Administrator\AppData\Local\Temp\VMBuilds\LoRa_Roll_Film\stm32_genericSTM32F103R\Release/core.a(HardwareSerial.cpp.o)
 .debug_ranges  0x00001920      0x168 C:\Users\Administrator\AppData\Local\Temp\VMBuilds\LoRa_Roll_Film\stm32_genericSTM32F103R\Release/core.a(HardwareTimer.cpp.o)
 .debug_ranges  0x00001a88       0x18 C:\Users\Administrator\AppData\Local\Temp\VMBuilds\LoRa_Roll_Film\stm32_genericSTM32F103R\Release/core.a(main.cpp.o)
 .debug_ranges  0x00001aa0      0x220 C:\Users\Administrator\AppData\Local\Temp\VMBuilds\LoRa_Roll_Film\stm32_genericSTM32F103R\Release/core.a(Print.cpp.o)
 .debug_ranges  0x00001cc0       0x10 C:\Users\Administrator\AppData\Local\Temp\VMBuilds\LoRa_Roll_Film\stm32_genericSTM32F103R\Release/core.a(wirish_analog.cpp.o)
 .debug_ranges  0x00001cd0       0x50 C:\Users\Administrator\AppData\Local\Temp\VMBuilds\LoRa_Roll_Film\stm32_genericSTM32F103R\Release/core.a(wirish_digital.cpp.o)
 .debug_ranges  0x00001d20       0x48 C:\Users\Administrator\AppData\Local\Temp\VMBuilds\LoRa_Roll_Film\stm32_genericSTM32F103R\Release/core.a(wirish_math.cpp.o)
 .debug_ranges  0x00001d68       0x50 C:\Users\Administrator\AppData\Local\Temp\VMBuilds\LoRa_Roll_Film\stm32_genericSTM32F103R\Release/core.a(wirish_time.cpp.o)
 .debug_ranges  0x00001db8       0x30 C:\Users\Administrator\AppData\Local\Temp\VMBuilds\LoRa_Roll_Film\stm32_genericSTM32F103R\Release/core.a(wirish_digital_f1.cpp.o)
 .debug_ranges  0x00001de8       0x10 C:\Users\Administrator\AppData\Local\Temp\VMBuilds\LoRa_Roll_Film\stm32_genericSTM32F103R\Release/core.a(hooks.c.o)
 .debug_ranges  0x00001df8      0x150 C:\Users\Administrator\AppData\Local\Temp\VMBuilds\LoRa_Roll_Film\stm32_genericSTM32F103R\Release/core.a(exti.c.o)
 .debug_ranges  0x00001f48       0x10 C:\Users\Administrator\AppData\Local\Temp\VMBuilds\LoRa_Roll_Film\stm32_genericSTM32F103R\Release/core.a(exti_f1.c.o)
 .debug_ranges  0x00001f58       0x10 C:\Users\Administrator\AppData\Local\Temp\VMBuilds\LoRa_Roll_Film\stm32_genericSTM32F103R\Release/core.a(gpio.c.o)
 .debug_ranges  0x00001f68       0xd0 C:\Users\Administrator\AppData\Local\Temp\VMBuilds\LoRa_Roll_Film\stm32_genericSTM32F103R\Release/core.a(usart.c.o)
 .debug_ranges  0x00002038       0x10 C:\Users\Administrator\AppData\Local\Temp\VMBuilds\LoRa_Roll_Film\stm32_genericSTM32F103R\Release/core.a(cxxabi-compat.cpp.o)

.comment        0x00000000       0x70
 .comment       0x00000000       0x70 LoRa_Roll_Film.cpp.o
                                 0x71 (size before relaxing)
 .comment       0x00000000       0x71 User_Clock.c.o
 .comment       0x00000000       0x71 AT24CXX.cpp.o
 .comment       0x00000000       0x71 BCD_CON.cpp.o
 .comment       0x00000000       0x71 Command_Analysis.cpp.o
 .comment       0x00000000       0x71 fun_periph.cpp.o
 .comment       0x00000000       0x71 i2c.cpp.o
 .comment       0x00000000       0x71 IAP.cpp.o
 .comment       0x00000000       0x71 LoRa.cpp.o
 .comment       0x00000000       0x71 Memory.cpp.o
 .comment       0x00000000       0x71 Motor.cpp.o
 .comment       0x00000000       0x71 Private_RTC.cpp.o
 .comment       0x00000000       0x71 Private_Timer.cpp.o
 .comment       0x00000000       0x71 public.cpp.o
 .comment       0x00000000       0x71 receipt.cpp.o
 .comment       0x00000000       0x71 Security.cpp.o
 .comment       0x00000000       0x71 User_CRC8.cpp.o
 .comment       0x00000000       0x71 RTClock\RTClock.cpp.o
 .comment       0x00000000       0x71 RTClock\utility\rtc_util.c.o
 .comment       0x00000000       0x71 C:\Users\Administrator\AppData\Local\Temp\VMBCore\arduino16x\a25b0c93d50495b56da79188cbb05a7a\variant\board.cpp.o
 .comment       0x00000000       0x71 C:\Users\Administrator\AppData\Local\Temp\VMBCore\arduino16x\a25b0c93d50495b56da79188cbb05a7a\variant\boards.cpp.o
 .comment       0x00000000       0x71 C:\Users\Administrator\AppData\Local\Temp\VMBCore\arduino16x\a25b0c93d50495b56da79188cbb05a7a\variant\boards_setup.cpp.o
 .comment       0x00000000       0x71 C:\Users\Administrator\AppData\Local\Temp\VMBCore\arduino16x\a25b0c93d50495b56da79188cbb05a7a\variant\start_c.c.o
 .comment       0x00000000       0x71 C:\Users\Administrator\AppData\Local\Temp\VMBCore\arduino16x\a25b0c93d50495b56da79188cbb05a7a\variant\syscalls.c.o
 .comment       0x00000000       0x71 C:\Users\Administrator\AppData\Local\Temp\VMBuilds\LoRa_Roll_Film\stm32_genericSTM32F103R\Release/core.a(adc.c.o)
 .comment       0x00000000       0x71 C:\Users\Administrator\AppData\Local\Temp\VMBuilds\LoRa_Roll_Film\stm32_genericSTM32F103R\Release/core.a(adc_f1.c.o)
 .comment       0x00000000       0x71 C:\Users\Administrator\AppData\Local\Temp\VMBuilds\LoRa_Roll_Film\stm32_genericSTM32F103R\Release/core.a(bkp_f1.c.o)
 .comment       0x00000000       0x71 C:\Users\Administrator\AppData\Local\Temp\VMBuilds\LoRa_Roll_Film\stm32_genericSTM32F103R\Release/core.a(flash.c.o)
 .comment       0x00000000       0x71 C:\Users\Administrator\AppData\Local\Temp\VMBuilds\LoRa_Roll_Film\stm32_genericSTM32F103R\Release/core.a(gpio_f1.c.o)
 .comment       0x00000000       0x71 C:\Users\Administrator\AppData\Local\Temp\VMBuilds\LoRa_Roll_Film\stm32_genericSTM32F103R\Release/core.a(iwdg.c.o)
 .comment       0x00000000       0x71 C:\Users\Administrator\AppData\Local\Temp\VMBuilds\LoRa_Roll_Film\stm32_genericSTM32F103R\Release/core.a(nvic.c.o)
 .comment       0x00000000       0x71 C:\Users\Administrator\AppData\Local\Temp\VMBuilds\LoRa_Roll_Film\stm32_genericSTM32F103R\Release/core.a(rcc.c.o)
 .comment       0x00000000       0x71 C:\Users\Administrator\AppData\Local\Temp\VMBuilds\LoRa_Roll_Film\stm32_genericSTM32F103R\Release/core.a(rcc_f1.c.o)
 .comment       0x00000000       0x71 C:\Users\Administrator\AppData\Local\Temp\VMBuilds\LoRa_Roll_Film\stm32_genericSTM32F103R\Release/core.a(systick.c.o)
 .comment       0x00000000       0x71 C:\Users\Administrator\AppData\Local\Temp\VMBuilds\LoRa_Roll_Film\stm32_genericSTM32F103R\Release/core.a(timer.c.o)
 .comment       0x00000000       0x71 C:\Users\Administrator\AppData\Local\Temp\VMBuilds\LoRa_Roll_Film\stm32_genericSTM32F103R\Release/core.a(usart_f1.c.o)
 .comment       0x00000000       0x71 C:\Users\Administrator\AppData\Local\Temp\VMBuilds\LoRa_Roll_Film\stm32_genericSTM32F103R\Release/core.a(usart_private.c.o)
 .comment       0x00000000       0x71 C:\Users\Administrator\AppData\Local\Temp\VMBuilds\LoRa_Roll_Film\stm32_genericSTM32F103R\Release/core.a(util.c.o)
 .comment       0x00000000       0x71 C:\Users\Administrator\AppData\Local\Temp\VMBuilds\LoRa_Roll_Film\stm32_genericSTM32F103R\Release/core.a(ext_interrupts.cpp.o)
 .comment       0x00000000       0x71 C:\Users\Administrator\AppData\Local\Temp\VMBuilds\LoRa_Roll_Film\stm32_genericSTM32F103R\Release/core.a(HardwareSerial.cpp.o)
 .comment       0x00000000       0x71 C:\Users\Administrator\AppData\Local\Temp\VMBuilds\LoRa_Roll_Film\stm32_genericSTM32F103R\Release/core.a(HardwareTimer.cpp.o)
 .comment       0x00000000       0x71 C:\Users\Administrator\AppData\Local\Temp\VMBuilds\LoRa_Roll_Film\stm32_genericSTM32F103R\Release/core.a(main.cpp.o)
 .comment       0x00000000       0x71 C:\Users\Administrator\AppData\Local\Temp\VMBuilds\LoRa_Roll_Film\stm32_genericSTM32F103R\Release/core.a(Print.cpp.o)
 .comment       0x00000000       0x71 C:\Users\Administrator\AppData\Local\Temp\VMBuilds\LoRa_Roll_Film\stm32_genericSTM32F103R\Release/core.a(wirish_analog.cpp.o)
 .comment       0x00000000       0x71 C:\Users\Administrator\AppData\Local\Temp\VMBuilds\LoRa_Roll_Film\stm32_genericSTM32F103R\Release/core.a(wirish_digital.cpp.o)
 .comment       0x00000000       0x71 C:\Users\Administrator\AppData\Local\Temp\VMBuilds\LoRa_Roll_Film\stm32_genericSTM32F103R\Release/core.a(wirish_math.cpp.o)
 .comment       0x00000000       0x71 C:\Users\Administrator\AppData\Local\Temp\VMBuilds\LoRa_Roll_Film\stm32_genericSTM32F103R\Release/core.a(wirish_time.cpp.o)
 .comment       0x00000000       0x71 C:\Users\Administrator\AppData\Local\Temp\VMBuilds\LoRa_Roll_Film\stm32_genericSTM32F103R\Release/core.a(wirish_digital_f1.cpp.o)
 .comment       0x00000000       0x71 C:\Users\Administrator\AppData\Local\Temp\VMBuilds\LoRa_Roll_Film\stm32_genericSTM32F103R\Release/core.a(hooks.c.o)
 .comment       0x00000000       0x71 C:\Users\Administrator\AppData\Local\Temp\VMBuilds\LoRa_Roll_Film\stm32_genericSTM32F103R\Release/core.a(exti.c.o)
 .comment       0x00000000       0x71 C:\Users\Administrator\AppData\Local\Temp\VMBuilds\LoRa_Roll_Film\stm32_genericSTM32F103R\Release/core.a(exti_f1.c.o)
 .comment       0x00000000       0x71 C:\Users\Administrator\AppData\Local\Temp\VMBuilds\LoRa_Roll_Film\stm32_genericSTM32F103R\Release/core.a(gpio.c.o)
 .comment       0x00000000       0x71 C:\Users\Administrator\AppData\Local\Temp\VMBuilds\LoRa_Roll_Film\stm32_genericSTM32F103R\Release/core.a(usart.c.o)
 .comment       0x00000000       0x71 C:\Users\Administrator\AppData\Local\Temp\VMBuilds\LoRa_Roll_Film\stm32_genericSTM32F103R\Release/core.a(cxxabi-compat.cpp.o)

Cross Reference Table

Symbol                                            File
ADC1                                              C:\Users\Administrator\AppData\Local\Temp\VMBuilds\LoRa_Roll_Film\stm32_genericSTM32F103R\Release/core.a(adc_f1.c.o)
ADC2                                              C:\Users\Administrator\AppData\Local\Temp\VMBuilds\LoRa_Roll_Film\stm32_genericSTM32F103R\Release/core.a(adc_f1.c.o)
ADC3                                              C:\Users\Administrator\AppData\Local\Temp\VMBuilds\LoRa_Roll_Film\stm32_genericSTM32F103R\Release/core.a(adc_f1.c.o)
ASC2BCD(unsigned char*, char*, unsigned int)      BCD_CON.cpp.o
AT24C_02                                          AT24CXX.cpp.o
AT24Cxx::AT24CXX_ReadOneByte(unsigned int)        AT24CXX.cpp.o
                                                  Memory.cpp.o
AT24Cxx::AT24CXX_WriteOneByte(unsigned int, unsigned char) AT24CXX.cpp.o
                                                  Memory.cpp.o
AT24Cxx::I2C_Init()                               AT24CXX.cpp.o
                                                  Memory.cpp.o
BCD2ASC(char*, char const*, unsigned int)         BCD_CON.cpp.o
BCDtoDec(unsigned char*, int)                     BCD_CON.cpp.o
BKP                                               C:\Users\Administrator\AppData\Local\Temp\VMBuilds\LoRa_Roll_Film\stm32_genericSTM32F103R\Release/core.a(bkp_f1.c.o)
ByteTOBcd(unsigned char)                          BCD_CON.cpp.o
Check_LoRa_Parameter()                            Security.cpp.o
Check_Store_Param_And_LoRa()                      Security.cpp.o
                                                  LoRa_Roll_Film.cpp.o
Check_Store_Parameter()                           Security.cpp.o
Command_Analysis::Detailed_Work_Status()          Command_Analysis.cpp.o
Command_Analysis::FrameID_Analysis()              Command_Analysis.cpp.o
Command_Analysis::Opening_Command()               Command_Analysis.cpp.o
Command_Analysis::Query_Current_Work_Param()      Command_Analysis.cpp.o
Command_Analysis::Receive_Data_Analysis()         Command_Analysis.cpp.o
Command_Analysis::Receive_LoRa_Cmd()              Command_Analysis.cpp.o
                                                  Security.cpp.o
                                                  Motor.cpp.o
                                                  LoRa_Roll_Film.cpp.o
Command_Analysis::ResetRoll_Command()             Command_Analysis.cpp.o
Command_Analysis::Set_Group_Number()              Command_Analysis.cpp.o
Command_Analysis::Set_SN_Area_Channel()           Command_Analysis.cpp.o
Command_Analysis::Stop_Work_Command()             Command_Analysis.cpp.o
Command_Analysis::Verify_Area_Number()            Command_Analysis.cpp.o
Command_Analysis::Verify_CRC8(unsigned char, unsigned char) Command_Analysis.cpp.o
Command_Analysis::Verify_Device_Type_ID()         Command_Analysis.cpp.o
Command_Analysis::Verify_Frame_Validity(unsigned char, unsigned char, bool, bool) Command_Analysis.cpp.o
Command_Analysis::Verify_Mass_Commands()          Command_Analysis.cpp.o
Command_Analysis::Verify_Work_Group()             Command_Analysis.cpp.o
Command_Analysis::Working_Limit_Command()         Command_Analysis.cpp.o
Date                                              Private_RTC.cpp.o
EEPROM_Operation                                  Memory.cpp.o
                                                  LoRa_Roll_Film.cpp.o
EEPROM_Operations::EEPROM_GPIO_Config()           Memory.cpp.o
                                                  LoRa_Roll_Film.cpp.o
EEPROM_Write_Disable()                            Memory.cpp.o
EEPROM_Write_Enable()                             Memory.cpp.o
FindDecimal(char*)                                BCD_CON.cpp.o
FloatStringToIntString(char*, char*, unsigned char*, int) BCD_CON.cpp.o
GPIOA                                             C:\Users\Administrator\AppData\Local\Temp\VMBuilds\LoRa_Roll_Film\stm32_genericSTM32F103R\Release/core.a(gpio_f1.c.o)
GPIOB                                             C:\Users\Administrator\AppData\Local\Temp\VMBuilds\LoRa_Roll_Film\stm32_genericSTM32F103R\Release/core.a(gpio_f1.c.o)
                                                  C:\Users\Administrator\AppData\Local\Temp\VMBuilds\LoRa_Roll_Film\stm32_genericSTM32F103R\Release/core.a(util.c.o)
GPIOC                                             C:\Users\Administrator\AppData\Local\Temp\VMBuilds\LoRa_Roll_Film\stm32_genericSTM32F103R\Release/core.a(gpio_f1.c.o)
GPIOD                                             C:\Users\Administrator\AppData\Local\Temp\VMBuilds\LoRa_Roll_Film\stm32_genericSTM32F103R\Release/core.a(gpio_f1.c.o)
GPIOE                                             C:\Users\Administrator\AppData\Local\Temp\VMBuilds\LoRa_Roll_Film\stm32_genericSTM32F103R\Release/core.a(gpio_f1.c.o)
GPIOF                                             C:\Users\Administrator\AppData\Local\Temp\VMBuilds\LoRa_Roll_Film\stm32_genericSTM32F103R\Release/core.a(gpio_f1.c.o)
GPIOG                                             C:\Users\Administrator\AppData\Local\Temp\VMBuilds\LoRa_Roll_Film\stm32_genericSTM32F103R\Release/core.a(gpio_f1.c.o)
GetCrc8(unsigned char*, int)                      User_CRC8.cpp.o
                                                  receipt.cpp.o
                                                  Memory.cpp.o
                                                  Command_Analysis.cpp.o
HardwareSerial::HardwareSerial(usart_dev*, unsigned char, unsigned char) C:\Users\Administrator\AppData\Local\Temp\VMBuilds\LoRa_Roll_Film\stm32_genericSTM32F103R\Release/core.a(HardwareSerial.cpp.o)
HardwareSerial::HardwareSerial(usart_dev*, unsigned char, unsigned char) C:\Users\Administrator\AppData\Local\Temp\VMBuilds\LoRa_Roll_Film\stm32_genericSTM32F103R\Release/core.a(HardwareSerial.cpp.o)
                                                  C:\Users\Administrator\AppData\Local\Temp\VMBCore\arduino16x\a25b0c93d50495b56da79188cbb05a7a\variant\board.cpp.o
HardwareSerial::available()                       C:\Users\Administrator\AppData\Local\Temp\VMBuilds\LoRa_Roll_Film\stm32_genericSTM32F103R\Release/core.a(HardwareSerial.cpp.o)
                                                  LoRa.cpp.o
                                                  Command_Analysis.cpp.o
HardwareSerial::availableForWrite()               C:\Users\Administrator\AppData\Local\Temp\VMBuilds\LoRa_Roll_Film\stm32_genericSTM32F103R\Release/core.a(HardwareSerial.cpp.o)
HardwareSerial::begin(unsigned long)              C:\Users\Administrator\AppData\Local\Temp\VMBuilds\LoRa_Roll_Film\stm32_genericSTM32F103R\Release/core.a(HardwareSerial.cpp.o)
                                                  LoRa.cpp.o
                                                  LoRa_Roll_Film.cpp.o
HardwareSerial::begin(unsigned long, unsigned char) C:\Users\Administrator\AppData\Local\Temp\VMBuilds\LoRa_Roll_Film\stm32_genericSTM32F103R\Release/core.a(HardwareSerial.cpp.o)
HardwareSerial::end()                             C:\Users\Administrator\AppData\Local\Temp\VMBuilds\LoRa_Roll_Film\stm32_genericSTM32F103R\Release/core.a(HardwareSerial.cpp.o)
                                                  LoRa.cpp.o
HardwareSerial::flush()                           C:\Users\Administrator\AppData\Local\Temp\VMBuilds\LoRa_Roll_Film\stm32_genericSTM32F103R\Release/core.a(HardwareSerial.cpp.o)
HardwareSerial::peek()                            C:\Users\Administrator\AppData\Local\Temp\VMBuilds\LoRa_Roll_Film\stm32_genericSTM32F103R\Release/core.a(HardwareSerial.cpp.o)
HardwareSerial::read()                            C:\Users\Administrator\AppData\Local\Temp\VMBuilds\LoRa_Roll_Film\stm32_genericSTM32F103R\Release/core.a(HardwareSerial.cpp.o)
                                                  LoRa.cpp.o
                                                  Command_Analysis.cpp.o
HardwareSerial::write(unsigned char)              C:\Users\Administrator\AppData\Local\Temp\VMBuilds\LoRa_Roll_Film\stm32_genericSTM32F103R\Release/core.a(HardwareSerial.cpp.o)
HardwareTimer::HardwareTimer(unsigned char)       C:\Users\Administrator\AppData\Local\Temp\VMBuilds\LoRa_Roll_Film\stm32_genericSTM32F103R\Release/core.a(HardwareTimer.cpp.o)
HardwareTimer::HardwareTimer(unsigned char)       C:\Users\Administrator\AppData\Local\Temp\VMBuilds\LoRa_Roll_Film\stm32_genericSTM32F103R\Release/core.a(HardwareTimer.cpp.o)
HardwareTimer::attachInterrupt(int, void (*)())   C:\Users\Administrator\AppData\Local\Temp\VMBuilds\LoRa_Roll_Film\stm32_genericSTM32F103R\Release/core.a(HardwareTimer.cpp.o)
                                                  Private_Timer.cpp.o
                                                  fun_periph.cpp.o
HardwareTimer::detachInterrupt(int)               C:\Users\Administrator\AppData\Local\Temp\VMBuilds\LoRa_Roll_Film\stm32_genericSTM32F103R\Release/core.a(HardwareTimer.cpp.o)
HardwareTimer::getCompare(int)                    C:\Users\Administrator\AppData\Local\Temp\VMBuilds\LoRa_Roll_Film\stm32_genericSTM32F103R\Release/core.a(HardwareTimer.cpp.o)
HardwareTimer::getCount()                         C:\Users\Administrator\AppData\Local\Temp\VMBuilds\LoRa_Roll_Film\stm32_genericSTM32F103R\Release/core.a(HardwareTimer.cpp.o)
HardwareTimer::getDirection()                     C:\Users\Administrator\AppData\Local\Temp\VMBuilds\LoRa_Roll_Film\stm32_genericSTM32F103R\Release/core.a(HardwareTimer.cpp.o)
HardwareTimer::getEdgeCounting()                  C:\Users\Administrator\AppData\Local\Temp\VMBuilds\LoRa_Roll_Film\stm32_genericSTM32F103R\Release/core.a(HardwareTimer.cpp.o)
HardwareTimer::getOverflow()                      C:\Users\Administrator\AppData\Local\Temp\VMBuilds\LoRa_Roll_Film\stm32_genericSTM32F103R\Release/core.a(HardwareTimer.cpp.o)
HardwareTimer::getPrescaleFactor()                C:\Users\Administrator\AppData\Local\Temp\VMBuilds\LoRa_Roll_Film\stm32_genericSTM32F103R\Release/core.a(HardwareTimer.cpp.o)
HardwareTimer::pause()                            C:\Users\Administrator\AppData\Local\Temp\VMBuilds\LoRa_Roll_Film\stm32_genericSTM32F103R\Release/core.a(HardwareTimer.cpp.o)
                                                  Private_Timer.cpp.o
                                                  fun_periph.cpp.o
HardwareTimer::refresh()                          C:\Users\Administrator\AppData\Local\Temp\VMBuilds\LoRa_Roll_Film\stm32_genericSTM32F103R\Release/core.a(HardwareTimer.cpp.o)
HardwareTimer::resume()                           C:\Users\Administrator\AppData\Local\Temp\VMBuilds\LoRa_Roll_Film\stm32_genericSTM32F103R\Release/core.a(HardwareTimer.cpp.o)
                                                  Private_Timer.cpp.o
                                                  fun_periph.cpp.o
HardwareTimer::setCompare(int, unsigned short)    C:\Users\Administrator\AppData\Local\Temp\VMBuilds\LoRa_Roll_Film\stm32_genericSTM32F103R\Release/core.a(HardwareTimer.cpp.o)
HardwareTimer::setCount(unsigned short)           C:\Users\Administrator\AppData\Local\Temp\VMBuilds\LoRa_Roll_Film\stm32_genericSTM32F103R\Release/core.a(HardwareTimer.cpp.o)
                                                  Private_Timer.cpp.o
                                                  fun_periph.cpp.o
HardwareTimer::setEdgeCounting(unsigned long)     C:\Users\Administrator\AppData\Local\Temp\VMBuilds\LoRa_Roll_Film\stm32_genericSTM32F103R\Release/core.a(HardwareTimer.cpp.o)
HardwareTimer::setMasterModeTrGo(unsigned long)   C:\Users\Administrator\AppData\Local\Temp\VMBuilds\LoRa_Roll_Film\stm32_genericSTM32F103R\Release/core.a(HardwareTimer.cpp.o)
HardwareTimer::setMode(int, timer_mode)           C:\Users\Administrator\AppData\Local\Temp\VMBuilds\LoRa_Roll_Film\stm32_genericSTM32F103R\Release/core.a(HardwareTimer.cpp.o)
HardwareTimer::setOverflow(unsigned short)        C:\Users\Administrator\AppData\Local\Temp\VMBuilds\LoRa_Roll_Film\stm32_genericSTM32F103R\Release/core.a(HardwareTimer.cpp.o)
HardwareTimer::setPeriod(unsigned long)           C:\Users\Administrator\AppData\Local\Temp\VMBuilds\LoRa_Roll_Film\stm32_genericSTM32F103R\Release/core.a(HardwareTimer.cpp.o)
                                                  Private_Timer.cpp.o
                                                  fun_periph.cpp.o
HardwareTimer::setPolarity()                      C:\Users\Administrator\AppData\Local\Temp\VMBuilds\LoRa_Roll_Film\stm32_genericSTM32F103R\Release/core.a(HardwareTimer.cpp.o)
HardwareTimer::setPrescaleFactor(unsigned long)   C:\Users\Administrator\AppData\Local\Temp\VMBuilds\LoRa_Roll_Film\stm32_genericSTM32F103R\Release/core.a(HardwareTimer.cpp.o)
I2C::Ack()                                        i2c.cpp.o
I2C::Init()                                       i2c.cpp.o
                                                  AT24CXX.cpp.o
I2C::NAck()                                       i2c.cpp.o
                                                  AT24CXX.cpp.o
I2C::Read_Byte(unsigned char)                     i2c.cpp.o
                                                  AT24CXX.cpp.o
I2C::SDA_In()                                     i2c.cpp.o
I2C::SDA_Out()                                    i2c.cpp.o
I2C::Send_Byte(unsigned char)                     i2c.cpp.o
                                                  AT24CXX.cpp.o
I2C::Start()                                      i2c.cpp.o
                                                  AT24CXX.cpp.o
I2C::Stop()                                       i2c.cpp.o
                                                  AT24CXX.cpp.o
I2C::Wait_Ack()                                   i2c.cpp.o
                                                  AT24CXX.cpp.o
Jump_Addr                                         IAP.cpp.o
Jump_OBJ(unsigned int)                            IAP.cpp.o
Key_Clear_Current_Value()                         LoRa_Roll_Film.cpp.o
Key_Reset_LoRa_Parameter()                        LoRa_Roll_Film.cpp.o
LED_Freq                                          fun_periph.cpp.o
LED_Interrupt()                                   fun_periph.cpp.o
LoRa::AT_Config_Cmd(char const*, char const*, unsigned char*) LoRa.cpp.o
LoRa::AT_Query_Cmd(char const*, unsigned char*, unsigned char*) LoRa.cpp.o
LoRa::BaudRate(unsigned int)                      LoRa.cpp.o
                                                  LoRa_Roll_Film.cpp.o
LoRa::Detect_Error_Receipt(unsigned char*)        LoRa.cpp.o
LoRa::Detect_OK_Receipt(unsigned char*, unsigned char*) LoRa.cpp.o
LoRa::Get_CSQ(unsigned char*, unsigned char, unsigned char*) LoRa.cpp.o
LoRa::IsReset(bool)                               LoRa.cpp.o
LoRa::LoRa_AT(unsigned char*, bool, char const*, char const*) LoRa.cpp.o
                                                  receipt.cpp.o
LoRa::LoRa_GPIO_Config()                          LoRa.cpp.o
                                                  LoRa_Roll_Film.cpp.o
LoRa::LoRa_Restart()                              LoRa.cpp.o
LoRa::LoRa_Shutdown()                             LoRa.cpp.o
LoRa::Mode(LoRa_Mode)                             LoRa.cpp.o
                                                  LoRa_Roll_Film.cpp.o
LoRa::Param_Check(char const*, char const*, bool) LoRa.cpp.o
LoRa::Parameter_Init(bool)                        LoRa.cpp.o
                                                  Security.cpp.o
                                                  Command_Analysis.cpp.o
                                                  LoRa_Roll_Film.cpp.o
LoRa::Parse_Command(unsigned char*, unsigned char, unsigned char*, unsigned char**) LoRa.cpp.o
LoRa::Rewrite_ID()                                LoRa.cpp.o
LoRa::String_to_Hex(unsigned char*, unsigned char) LoRa.cpp.o
LoRa_Command_Analysis                             Command_Analysis.cpp.o
                                                  Security.cpp.o
                                                  Motor.cpp.o
                                                  LoRa_Roll_Film.cpp.o
LoRa_Config::Clear_LoRa_Addr_Flag()               Memory.cpp.o
LoRa_Config::Clear_LoRa_Com_Mode_Flag()           Memory.cpp.o
LoRa_Config::Clear_LoRa_Config_Flag()             Memory.cpp.o
                                                  LoRa_Roll_Film.cpp.o
LoRa_Config::Read_LoRa_Addr(unsigned char*)       Memory.cpp.o
                                                  LoRa.cpp.o
LoRa_Config::Read_LoRa_Com_Mode()                 Memory.cpp.o
                                                  receipt.cpp.o
                                                  LoRa.cpp.o
LoRa_Config::Save_LoRa_Addr(unsigned char*)       Memory.cpp.o
                                                  LoRa.cpp.o
LoRa_Config::Save_LoRa_Addr_Flag()                Memory.cpp.o
LoRa_Config::Save_LoRa_Com_Mode(unsigned char)    Memory.cpp.o
                                                  Command_Analysis.cpp.o
LoRa_Config::Save_LoRa_Com_Mode_Flag()            Memory.cpp.o
LoRa_Config::Save_LoRa_Config_Flag()              Memory.cpp.o
                                                  LoRa_Roll_Film.cpp.o
LoRa_Config::Verify_LoRa_Addr_Flag()              Memory.cpp.o
                                                  LoRa.cpp.o
LoRa_Config::Verify_LoRa_Config_Flag()            Memory.cpp.o
LoRa_MHL9LF                                       LoRa.cpp.o
                                                  Security.cpp.o
                                                  receipt.cpp.o
                                                  Command_Analysis.cpp.o
                                                  LoRa_Roll_Film.cpp.o
LoRa_Para_Config                                  Memory.cpp.o
                                                  receipt.cpp.o
                                                  LoRa.cpp.o
                                                  Command_Analysis.cpp.o
                                                  LoRa_Roll_Film.cpp.o
MSR_MSP(unsigned int)                             IAP.cpp.o
Manual_Down_Change_Interrupt()                    Motor.cpp.o
                                                  Command_Analysis.cpp.o
                                                  LoRa_Roll_Film.cpp.o
Manual_Up_Change_Interrupt()                      Motor.cpp.o
                                                  Command_Analysis.cpp.o
                                                  LoRa_Roll_Film.cpp.o
Message_Receipt                                   receipt.cpp.o
                                                  Security.cpp.o
                                                  Motor.cpp.o
                                                  Command_Analysis.cpp.o
                                                  LoRa_Roll_Film.cpp.o
Motor_Operation                                   Motor.cpp.o
                                                  receipt.cpp.o
                                                  Command_Analysis.cpp.o
                                                  LoRa_Roll_Film.cpp.o
Motor_Operations::Adjust_Opening()                Motor.cpp.o
                                                  LoRa_Roll_Film.cpp.o
Motor_Operations::Adjust_deviation()              Motor.cpp.o
                                                  LoRa_Roll_Film.cpp.o
Motor_Operations::Calculate_Voltage(unsigned int*, unsigned long*, int*, unsigned int*) Motor.cpp.o
Motor_Operations::Calculate_and_Save_Current(unsigned int*, unsigned int*, unsigned int*, unsigned int*, Limit_Detection) Motor.cpp.o
Motor_Operations::Calculate_and_Save_Voltage(unsigned int*, unsigned long*, int*, unsigned int*) Motor.cpp.o
Motor_Operations::Collect_Current(unsigned int*, unsigned int*, unsigned int*, unsigned int*) Motor.cpp.o
Motor_Operations::Current_Detection()             Motor.cpp.o
                                                  receipt.cpp.o
Motor_Operations::Detect_Manual_Rolling()         Motor.cpp.o
                                                  LoRa_Roll_Film.cpp.o
Motor_Operations::Detect_Motor_Limit(unsigned char*, Limit_Detection, Roll_Action, unsigned char, unsigned int) Motor.cpp.o
Motor_Operations::Detect_Motor_OverCurrent(float, unsigned int, unsigned char) Motor.cpp.o
Motor_Operations::Detect_Motor_Overtime(Limit_Detection) Motor.cpp.o
Motor_Operations::Direction_Selection(Motor_forward) Motor.cpp.o
                                                  LoRa_Roll_Film.cpp.o
Motor_Operations::Dynamic_Adjust_Roll_Time(unsigned int, unsigned int*) Motor.cpp.o
Motor_Operations::Finish_Rolling()                Motor.cpp.o
Motor_Operations::Force_Open_or_Close(unsigned char) Motor.cpp.o
                                                  Command_Analysis.cpp.o
Motor_Operations::Force_Stop_Work(Roll_Action, unsigned char) Motor.cpp.o
Motor_Operations::Motor_Coiling()                 Motor.cpp.o
                                                  Command_Analysis.cpp.o
Motor_Operations::Motor_Current_Init(float*, unsigned int*, Limit_Detection) Motor.cpp.o
Motor_Operations::Motor_Current_Status(float, unsigned int, unsigned char) Motor.cpp.o
Motor_Operations::Motor_GPIO_Config()             Motor.cpp.o
                                                  LoRa_Roll_Film.cpp.o
Motor_Operations::Reset_Motor_Route()             Motor.cpp.o
                                                  Command_Analysis.cpp.o
                                                  LoRa_Roll_Film.cpp.o
Motor_Operations::Trace_Opening()                 Motor.cpp.o
                                                  LoRa_Roll_Film.cpp.o
Motor_Operations::Verify_Reset_OK(unsigned char*, bool, bool) Motor.cpp.o
Motor_Operations::Voltage_Detection()             Motor.cpp.o
                                                  receipt.cpp.o
MyDelayMs(unsigned int)                           public.cpp.o
                                                  Motor.cpp.o
                                                  LoRa_Roll_Film.cpp.o
OSAL_timeSeconds                                  User_Clock.c.o
PIN_MAP                                           C:\Users\Administrator\AppData\Local\Temp\VMBCore\arduino16x\a25b0c93d50495b56da79188cbb05a7a\variant\board.cpp.o
                                                  C:\Users\Administrator\AppData\Local\Temp\VMBuilds\LoRa_Roll_Film\stm32_genericSTM32F103R\Release/core.a(wirish_digital_f1.cpp.o)
                                                  C:\Users\Administrator\AppData\Local\Temp\VMBuilds\LoRa_Roll_Film\stm32_genericSTM32F103R\Release/core.a(wirish_digital.cpp.o)
                                                  C:\Users\Administrator\AppData\Local\Temp\VMBuilds\LoRa_Roll_Film\stm32_genericSTM32F103R\Release/core.a(wirish_analog.cpp.o)
                                                  C:\Users\Administrator\AppData\Local\Temp\VMBuilds\LoRa_Roll_Film\stm32_genericSTM32F103R\Release/core.a(HardwareSerial.cpp.o)
                                                  C:\Users\Administrator\AppData\Local\Temp\VMBuilds\LoRa_Roll_Film\stm32_genericSTM32F103R\Release/core.a(ext_interrupts.cpp.o)
PackBCD(char*, float, int, int)                   BCD_CON.cpp.o
Print::print(Printable const&)                    C:\Users\Administrator\AppData\Local\Temp\VMBuilds\LoRa_Roll_Film\stm32_genericSTM32F103R\Release/core.a(Print.cpp.o)
Print::print(String const&)                       C:\Users\Administrator\AppData\Local\Temp\VMBuilds\LoRa_Roll_Film\stm32_genericSTM32F103R\Release/core.a(Print.cpp.o)
Print::print(__FlashStringHelper const*)          C:\Users\Administrator\AppData\Local\Temp\VMBuilds\LoRa_Roll_Film\stm32_genericSTM32F103R\Release/core.a(Print.cpp.o)
Print::print(char const*)                         C:\Users\Administrator\AppData\Local\Temp\VMBuilds\LoRa_Roll_Film\stm32_genericSTM32F103R\Release/core.a(Print.cpp.o)
                                                  receipt.cpp.o
                                                  Motor.cpp.o
                                                  LoRa.cpp.o
                                                  Command_Analysis.cpp.o
Print::print(char)                                C:\Users\Administrator\AppData\Local\Temp\VMBuilds\LoRa_Roll_Film\stm32_genericSTM32F103R\Release/core.a(Print.cpp.o)
Print::print(double, int)                         C:\Users\Administrator\AppData\Local\Temp\VMBuilds\LoRa_Roll_Film\stm32_genericSTM32F103R\Release/core.a(Print.cpp.o)
Print::print(int, int)                            C:\Users\Administrator\AppData\Local\Temp\VMBuilds\LoRa_Roll_Film\stm32_genericSTM32F103R\Release/core.a(Print.cpp.o)
Print::print(long long, int)                      C:\Users\Administrator\AppData\Local\Temp\VMBuilds\LoRa_Roll_Film\stm32_genericSTM32F103R\Release/core.a(Print.cpp.o)
Print::print(long, int)                           C:\Users\Administrator\AppData\Local\Temp\VMBuilds\LoRa_Roll_Film\stm32_genericSTM32F103R\Release/core.a(Print.cpp.o)
Print::print(unsigned char, int)                  C:\Users\Administrator\AppData\Local\Temp\VMBuilds\LoRa_Roll_Film\stm32_genericSTM32F103R\Release/core.a(Print.cpp.o)
                                                  receipt.cpp.o
                                                  LoRa.cpp.o
                                                  Command_Analysis.cpp.o
Print::print(unsigned int, int)                   C:\Users\Administrator\AppData\Local\Temp\VMBuilds\LoRa_Roll_Film\stm32_genericSTM32F103R\Release/core.a(Print.cpp.o)
Print::print(unsigned long long, int)             C:\Users\Administrator\AppData\Local\Temp\VMBuilds\LoRa_Roll_Film\stm32_genericSTM32F103R\Release/core.a(Print.cpp.o)
Print::print(unsigned long, int)                  C:\Users\Administrator\AppData\Local\Temp\VMBuilds\LoRa_Roll_Film\stm32_genericSTM32F103R\Release/core.a(Print.cpp.o)
Print::printFloat(double, unsigned char)          C:\Users\Administrator\AppData\Local\Temp\VMBuilds\LoRa_Roll_Film\stm32_genericSTM32F103R\Release/core.a(Print.cpp.o)
Print::printNumber(unsigned long long, unsigned char) C:\Users\Administrator\AppData\Local\Temp\VMBuilds\LoRa_Roll_Film\stm32_genericSTM32F103R\Release/core.a(Print.cpp.o)
Print::println()                                  C:\Users\Administrator\AppData\Local\Temp\VMBuilds\LoRa_Roll_Film\stm32_genericSTM32F103R\Release/core.a(Print.cpp.o)
                                                  receipt.cpp.o
                                                  LoRa.cpp.o
Print::println(Printable const&)                  C:\Users\Administrator\AppData\Local\Temp\VMBuilds\LoRa_Roll_Film\stm32_genericSTM32F103R\Release/core.a(Print.cpp.o)
Print::println(String const&)                     C:\Users\Administrator\AppData\Local\Temp\VMBuilds\LoRa_Roll_Film\stm32_genericSTM32F103R\Release/core.a(Print.cpp.o)
Print::println(__FlashStringHelper const*)        C:\Users\Administrator\AppData\Local\Temp\VMBuilds\LoRa_Roll_Film\stm32_genericSTM32F103R\Release/core.a(Print.cpp.o)
Print::println(char const*)                       C:\Users\Administrator\AppData\Local\Temp\VMBuilds\LoRa_Roll_Film\stm32_genericSTM32F103R\Release/core.a(Print.cpp.o)
                                                  Security.cpp.o
                                                  receipt.cpp.o
                                                  Motor.cpp.o
                                                  Memory.cpp.o
                                                  LoRa.cpp.o
                                                  Command_Analysis.cpp.o
                                                  LoRa_Roll_Film.cpp.o
Print::println(char)                              C:\Users\Administrator\AppData\Local\Temp\VMBuilds\LoRa_Roll_Film\stm32_genericSTM32F103R\Release/core.a(Print.cpp.o)
Print::println(double, int)                       C:\Users\Administrator\AppData\Local\Temp\VMBuilds\LoRa_Roll_Film\stm32_genericSTM32F103R\Release/core.a(Print.cpp.o)
                                                  Motor.cpp.o
Print::println(int, int)                          C:\Users\Administrator\AppData\Local\Temp\VMBuilds\LoRa_Roll_Film\stm32_genericSTM32F103R\Release/core.a(Print.cpp.o)
Print::println(long long, int)                    C:\Users\Administrator\AppData\Local\Temp\VMBuilds\LoRa_Roll_Film\stm32_genericSTM32F103R\Release/core.a(Print.cpp.o)
Print::println(long, int)                         C:\Users\Administrator\AppData\Local\Temp\VMBuilds\LoRa_Roll_Film\stm32_genericSTM32F103R\Release/core.a(Print.cpp.o)
Print::println(unsigned char, int)                C:\Users\Administrator\AppData\Local\Temp\VMBuilds\LoRa_Roll_Film\stm32_genericSTM32F103R\Release/core.a(Print.cpp.o)
                                                  Motor.cpp.o
                                                  LoRa.cpp.o
Print::println(unsigned int, int)                 C:\Users\Administrator\AppData\Local\Temp\VMBuilds\LoRa_Roll_Film\stm32_genericSTM32F103R\Release/core.a(Print.cpp.o)
                                                  Motor.cpp.o
Print::println(unsigned long long, int)           C:\Users\Administrator\AppData\Local\Temp\VMBuilds\LoRa_Roll_Film\stm32_genericSTM32F103R\Release/core.a(Print.cpp.o)
Print::println(unsigned long, int)                C:\Users\Administrator\AppData\Local\Temp\VMBuilds\LoRa_Roll_Film\stm32_genericSTM32F103R\Release/core.a(Print.cpp.o)
Print::write(char const*)                         C:\Users\Administrator\AppData\Local\Temp\VMBuilds\LoRa_Roll_Film\stm32_genericSTM32F103R\Release/core.a(Print.cpp.o)
                                                  C:\Users\Administrator\AppData\Local\Temp\VMBuilds\LoRa_Roll_Film\stm32_genericSTM32F103R\Release/core.a(HardwareSerial.cpp.o)
Print::write(void const*, unsigned long)          C:\Users\Administrator\AppData\Local\Temp\VMBuilds\LoRa_Roll_Film\stm32_genericSTM32F103R\Release/core.a(Print.cpp.o)
                                                  C:\Users\Administrator\AppData\Local\Temp\VMBuilds\LoRa_Roll_Film\stm32_genericSTM32F103R\Release/core.a(HardwareSerial.cpp.o)
Private_RTC                                       Private_RTC.cpp.o
Project_Debug()                                   LoRa_Roll_Film.cpp.o
RTC                                               RTClock\utility\rtc_util.c.o
RTClock::RTClock()                                RTClock\RTClock.cpp.o
RTClock::RTClock()                                RTClock\RTClock.cpp.o
RTClock::RTClock(rtc_clk_src)                     RTClock\RTClock.cpp.o
RTClock::RTClock(rtc_clk_src)                     RTClock\RTClock.cpp.o
                                                  Private_RTC.cpp.o
RTClock::RTClock(rtc_clk_src, unsigned short)     RTClock\RTClock.cpp.o
RTClock::RTClock(rtc_clk_src, unsigned short)     RTClock\RTClock.cpp.o
RTClock::attachSecondsInterrupt(void (*)())       RTClock\RTClock.cpp.o
RTClock::createAlarm(void (*)(), long)            RTClock\RTClock.cpp.o
RTClock::createAlarm(void (*)(), tm*)             RTClock\RTClock.cpp.o
RTClock::detachSecondsInterrupt()                 RTClock\RTClock.cpp.o
RTClock::getTime()                                RTClock\RTClock.cpp.o
                                                  Private_RTC.cpp.o
RTClock::getTime(tm*)                             RTClock\RTClock.cpp.o
RTClock::setAlarmTime(long)                       RTClock\RTClock.cpp.o
RTClock::setAlarmTime(tm*)                        RTClock\RTClock.cpp.o
RTClock::setTime(long)                            RTClock\RTClock.cpp.o
                                                  Private_RTC.cpp.o
RTClock::setTime(tm*)                             RTClock\RTClock.cpp.o
Receipt::Clear_Server_LoRa_Buffer()               receipt.cpp.o
Receipt::General_Receipt(unsigned char, unsigned char) receipt.cpp.o
                                                  Command_Analysis.cpp.o
Receipt::Print_Debug(unsigned char*, unsigned char) receipt.cpp.o
Receipt::Receipt_Random_Wait_Value(unsigned long*) receipt.cpp.o
Receipt::Report_General_Parameter()               receipt.cpp.o
                                                  Command_Analysis.cpp.o
                                                  LoRa_Roll_Film.cpp.o
Receipt::Request_Device_SN_and_Channel()          receipt.cpp.o
                                                  Security.cpp.o
                                                  LoRa_Roll_Film.cpp.o
Receipt::Request_Set_Group_Number()               receipt.cpp.o
                                                  Security.cpp.o
Receipt::Working_Parameter_Receipt(bool, unsigned char) receipt.cpp.o
                                                  Motor.cpp.o
                                                  Command_Analysis.cpp.o
Request_Access_Network()                          LoRa_Roll_Film.cpp.o
Roll_Operation                                    Memory.cpp.o
                                                  Security.cpp.o
                                                  receipt.cpp.o
                                                  Motor.cpp.o
                                                  Command_Analysis.cpp.o
                                                  LoRa_Roll_Film.cpp.o
Roll_Operations::Check_Area_Number()              Memory.cpp.o
                                                  Security.cpp.o
Roll_Operations::Check_Group_Number()             Memory.cpp.o
                                                  Security.cpp.o
Roll_Operations::Clear_All_Opening_Value()        Memory.cpp.o
                                                  Motor.cpp.o
Roll_Operations::Clear_Area_Number()              Memory.cpp.o
                                                  LoRa_Roll_Film.cpp.o
Roll_Operations::Clear_Current_Flag()             Memory.cpp.o
                                                  Motor.cpp.o
                                                  LoRa_Roll_Film.cpp.o
Roll_Operations::Clear_Group_Number()             Memory.cpp.o
                                                  LoRa_Roll_Film.cpp.o
Roll_Operations::Clear_Route_Save_Flag()          Memory.cpp.o
                                                  Motor.cpp.o
Roll_Operations::Current_Self_Check()             Memory.cpp.o
                                                  Motor.cpp.o
Roll_Operations::Read_Area_Number()               Memory.cpp.o
                                                  receipt.cpp.o
                                                  Command_Analysis.cpp.o
Roll_Operations::Read_Current_Opening_Value()     Memory.cpp.o
                                                  Motor.cpp.o
Roll_Operations::Read_Group_Number(unsigned char*) Memory.cpp.o
                                                  receipt.cpp.o
                                                  Command_Analysis.cpp.o
Roll_Operations::Read_Last_Opening_Value()        Memory.cpp.o
                                                  Motor.cpp.o
Roll_Operations::Read_RealTime_Opening_Value()    Memory.cpp.o
                                                  receipt.cpp.o
                                                  Motor.cpp.o
                                                  Command_Analysis.cpp.o
Roll_Operations::Read_Roll_Down_Current(unsigned int*) Memory.cpp.o
                                                  Motor.cpp.o
Roll_Operations::Read_Roll_High_Current_Limit_Value() Memory.cpp.o
                                                  receipt.cpp.o
                                                  Motor.cpp.o
Roll_Operations::Read_Roll_Low_Voltage_Limit_Value() Memory.cpp.o
                                                  receipt.cpp.o
Roll_Operations::Read_Roll_Report_Status_Interval_Value() Memory.cpp.o
                                                  receipt.cpp.o
                                                  Motor.cpp.o
Roll_Operations::Read_Roll_Up_Current(unsigned int*) Memory.cpp.o
                                                  Motor.cpp.o
Roll_Operations::Read_Roll_Voltage(unsigned int*) Memory.cpp.o
                                                  Motor.cpp.o
Roll_Operations::Read_Rolling_Time()              Memory.cpp.o
                                                  Motor.cpp.o
Roll_Operations::Read_Route_Save_Flag()           Memory.cpp.o
                                                  Motor.cpp.o
                                                  Command_Analysis.cpp.o
Roll_Operations::Save_Area_Number(unsigned char)  Memory.cpp.o
                                                  Command_Analysis.cpp.o
Roll_Operations::Save_Current_Opening_Value(unsigned char) Memory.cpp.o
                                                  Motor.cpp.o
                                                  Command_Analysis.cpp.o
Roll_Operations::Save_Group_Number(unsigned char*) Memory.cpp.o
                                                  Command_Analysis.cpp.o
                                                  LoRa_Roll_Film.cpp.o
Roll_Operations::Save_Last_Opening_Value(unsigned char) Memory.cpp.o
                                                  Motor.cpp.o
Roll_Operations::Save_RealTime_Opening_Value(unsigned char) Memory.cpp.o
                                                  Motor.cpp.o
Roll_Operations::Save_Roll_Down_Current(unsigned int) Memory.cpp.o
                                                  Motor.cpp.o
Roll_Operations::Save_Roll_Up_Current(unsigned int) Memory.cpp.o
                                                  Motor.cpp.o
Roll_Operations::Save_Roll_Voltage(unsigned int)  Memory.cpp.o
                                                  Motor.cpp.o
Roll_Operations::Save_Roll_Work_Voltage_and_Report_Interval(unsigned char*) Memory.cpp.o
                                                  Command_Analysis.cpp.o
Roll_Operations::Save_Rolling_Time(unsigned int)  Memory.cpp.o
                                                  Motor.cpp.o
Roll_Operations::Set_Route_Save_Flag()            Memory.cpp.o
                                                  Motor.cpp.o
Roll_Operations::Verify_Area_Number_Flag()        Memory.cpp.o
Roll_Operations::Verify_Current_Flag()            Memory.cpp.o
                                                  Motor.cpp.o
Roll_Operations::Verify_Group_Number_Flag()       Memory.cpp.o
Roll_Timer_Init()                                 Private_Timer.cpp.o
                                                  LoRa_Roll_Film.cpp.o
RtcTime                                           Private_RTC.cpp.o
SN                                                Memory.cpp.o
                                                  Security.cpp.o
                                                  receipt.cpp.o
                                                  Command_Analysis.cpp.o
                                                  LoRa_Roll_Film.cpp.o
SN_Operations::Clear_BKP_SN_Save_Flag()           Memory.cpp.o
SN_Operations::Clear_SN_Access_Network_Flag()     Memory.cpp.o
                                                  LoRa_Roll_Film.cpp.o
SN_Operations::Clear_SN_Save_Flag()               Memory.cpp.o
SN_Operations::Read_BKP_SN_Code(unsigned char*)   Memory.cpp.o
SN_Operations::Read_Random_Seed(unsigned char*)   Memory.cpp.o
                                                  receipt.cpp.o
SN_Operations::Read_SN_Code(unsigned char*)       Memory.cpp.o
                                                  receipt.cpp.o
SN_Operations::Save_BKP_SN_Code(unsigned char*)   Memory.cpp.o
                                                  Command_Analysis.cpp.o
                                                  LoRa_Roll_Film.cpp.o
SN_Operations::Save_SN_Code(unsigned char*)       Memory.cpp.o
                                                  Command_Analysis.cpp.o
                                                  LoRa_Roll_Film.cpp.o
SN_Operations::Self_check(unsigned char*)         Memory.cpp.o
                                                  Security.cpp.o
                                                  LoRa_Roll_Film.cpp.o
SN_Operations::Set_SN_Access_Network_Flag()       Memory.cpp.o
                                                  Command_Analysis.cpp.o
SN_Operations::Verify_SN_Access_Network_Flag()    Memory.cpp.o
                                                  LoRa_Roll_Film.cpp.o
SN_Operations::Verify_Save_BKP_SN_Code()          Memory.cpp.o
SN_Operations::Verify_Save_SN_Code()              Memory.cpp.o
SelfCheckTryNum                                   Security.cpp.o
Self_Check_Parameter_Timer_Init()                 Private_Timer.cpp.o
                                                  LoRa_Roll_Film.cpp.o
Serial                                            C:\Users\Administrator\AppData\Local\Temp\VMBCore\arduino16x\a25b0c93d50495b56da79188cbb05a7a\variant\board.cpp.o
                                                  Security.cpp.o
                                                  receipt.cpp.o
                                                  Motor.cpp.o
                                                  Memory.cpp.o
                                                  LoRa.cpp.o
                                                  Command_Analysis.cpp.o
                                                  LoRa_Roll_Film.cpp.o
Serial1                                           C:\Users\Administrator\AppData\Local\Temp\VMBCore\arduino16x\a25b0c93d50495b56da79188cbb05a7a\variant\board.cpp.o
                                                  receipt.cpp.o
                                                  LoRa.cpp.o
                                                  Command_Analysis.cpp.o
Serial2                                           C:\Users\Administrator\AppData\Local\Temp\VMBCore\arduino16x\a25b0c93d50495b56da79188cbb05a7a\variant\board.cpp.o
Serial3                                           C:\Users\Administrator\AppData\Local\Temp\VMBCore\arduino16x\a25b0c93d50495b56da79188cbb05a7a\variant\board.cpp.o
Serial4                                           C:\Users\Administrator\AppData\Local\Temp\VMBCore\arduino16x\a25b0c93d50495b56da79188cbb05a7a\variant\board.cpp.o
Soft_Hard_Vertion::Save_Software_version(unsigned char, unsigned char) Memory.cpp.o
Soft_Hard_Vertion::Save_hardware_version(unsigned char, unsigned char) Memory.cpp.o
Some_Peripheral                                   fun_periph.cpp.o
                                                  Security.cpp.o
                                                  receipt.cpp.o
                                                  Motor.cpp.o
                                                  Memory.cpp.o
                                                  LoRa.cpp.o
                                                  LoRa_Roll_Film.cpp.o
Some_Peripherals::Key_Buzz(unsigned int)          fun_periph.cpp.o
                                                  Memory.cpp.o
                                                  LoRa_Roll_Film.cpp.o
Some_Peripherals::LED_Display(LED, unsigned char) fun_periph.cpp.o
                                                  Security.cpp.o
                                                  Motor.cpp.o
                                                  LoRa.cpp.o
                                                  LoRa_Roll_Film.cpp.o
Some_Peripherals::Peripheral_GPIO_Config()        fun_periph.cpp.o
                                                  LoRa_Roll_Film.cpp.o
Some_Peripherals::Start_LED()                     fun_periph.cpp.o
                                                  receipt.cpp.o
Some_Peripherals::Stop_LED()                      fun_periph.cpp.o
                                                  receipt.cpp.o
Start_Roll_Timing()                               Private_Timer.cpp.o
                                                  Motor.cpp.o
Start_Self_Check_Timing()                         Private_Timer.cpp.o
                                                  Security.cpp.o
                                                  Motor.cpp.o
Stop_Roll_Timing()                                Private_Timer.cpp.o
                                                  Motor.cpp.o
Stop_Self_Check_Timing()                          Private_Timer.cpp.o
                                                  Security.cpp.o
                                                  Motor.cpp.o
TIMER1                                            C:\Users\Administrator\AppData\Local\Temp\VMBuilds\LoRa_Roll_Film\stm32_genericSTM32F103R\Release/core.a(timer.c.o)
TIMER2                                            C:\Users\Administrator\AppData\Local\Temp\VMBuilds\LoRa_Roll_Film\stm32_genericSTM32F103R\Release/core.a(timer.c.o)
TIMER3                                            C:\Users\Administrator\AppData\Local\Temp\VMBuilds\LoRa_Roll_Film\stm32_genericSTM32F103R\Release/core.a(timer.c.o)
TIMER4                                            C:\Users\Administrator\AppData\Local\Temp\VMBuilds\LoRa_Roll_Film\stm32_genericSTM32F103R\Release/core.a(timer.c.o)
TIMER5                                            C:\Users\Administrator\AppData\Local\Temp\VMBuilds\LoRa_Roll_Film\stm32_genericSTM32F103R\Release/core.a(timer.c.o)
TIMER6                                            C:\Users\Administrator\AppData\Local\Temp\VMBuilds\LoRa_Roll_Film\stm32_genericSTM32F103R\Release/core.a(timer.c.o)
TIMER7                                            C:\Users\Administrator\AppData\Local\Temp\VMBuilds\LoRa_Roll_Film\stm32_genericSTM32F103R\Release/core.a(timer.c.o)
TIMER8                                            C:\Users\Administrator\AppData\Local\Temp\VMBuilds\LoRa_Roll_Film\stm32_genericSTM32F103R\Release/core.a(timer.c.o)
Timer1                                            C:\Users\Administrator\AppData\Local\Temp\VMBuilds\LoRa_Roll_Film\stm32_genericSTM32F103R\Release/core.a(HardwareTimer.cpp.o)
Timer2                                            C:\Users\Administrator\AppData\Local\Temp\VMBuilds\LoRa_Roll_Film\stm32_genericSTM32F103R\Release/core.a(HardwareTimer.cpp.o)
                                                  Private_Timer.cpp.o
Timer2_Interrupt()                                Private_Timer.cpp.o
Timer3                                            C:\Users\Administrator\AppData\Local\Temp\VMBuilds\LoRa_Roll_Film\stm32_genericSTM32F103R\Release/core.a(HardwareTimer.cpp.o)
                                                  Private_Timer.cpp.o
Timer3_Interrupt()                                Private_Timer.cpp.o
Timer4                                            C:\Users\Administrator\AppData\Local\Temp\VMBuilds\LoRa_Roll_Film\stm32_genericSTM32F103R\Release/core.a(HardwareTimer.cpp.o)
                                                  fun_periph.cpp.o
Timer5                                            C:\Users\Administrator\AppData\Local\Temp\VMBuilds\LoRa_Roll_Film\stm32_genericSTM32F103R\Release/core.a(HardwareTimer.cpp.o)
Timer6                                            C:\Users\Administrator\AppData\Local\Temp\VMBuilds\LoRa_Roll_Film\stm32_genericSTM32F103R\Release/core.a(HardwareTimer.cpp.o)
Timer7                                            C:\Users\Administrator\AppData\Local\Temp\VMBuilds\LoRa_Roll_Film\stm32_genericSTM32F103R\Release/core.a(HardwareTimer.cpp.o)
Timer8                                            C:\Users\Administrator\AppData\Local\Temp\VMBuilds\LoRa_Roll_Film\stm32_genericSTM32F103R\Release/core.a(HardwareTimer.cpp.o)
ToBCD(int, unsigned char*, unsigned char*, unsigned char*) BCD_CON.cpp.o
TypeConv::Dec_To_Hex(unsigned char)               public.cpp.o
                                                  receipt.cpp.o
TypeConv::Dec_To_Hex(unsigned char*)              public.cpp.o
TypeConv::Hex_To_Dec(unsigned char)               public.cpp.o
TypeConv::Hex_To_Dec(unsigned char*)              public.cpp.o
Type_Conv                                         public.cpp.o
                                                  receipt.cpp.o
UART4                                             C:\Users\Administrator\AppData\Local\Temp\VMBuilds\LoRa_Roll_Film\stm32_genericSTM32F103R\Release/core.a(usart_f1.c.o)
                                                  C:\Users\Administrator\AppData\Local\Temp\VMBCore\arduino16x\a25b0c93d50495b56da79188cbb05a7a\variant\board.cpp.o
UART5                                             C:\Users\Administrator\AppData\Local\Temp\VMBuilds\LoRa_Roll_Film\stm32_genericSTM32F103R\Release/core.a(usart_f1.c.o)
                                                  C:\Users\Administrator\AppData\Local\Temp\VMBCore\arduino16x\a25b0c93d50495b56da79188cbb05a7a\variant\board.cpp.o
USART1                                            C:\Users\Administrator\AppData\Local\Temp\VMBuilds\LoRa_Roll_Film\stm32_genericSTM32F103R\Release/core.a(usart_f1.c.o)
                                                  C:\Users\Administrator\AppData\Local\Temp\VMBCore\arduino16x\a25b0c93d50495b56da79188cbb05a7a\variant\board.cpp.o
USART2                                            C:\Users\Administrator\AppData\Local\Temp\VMBuilds\LoRa_Roll_Film\stm32_genericSTM32F103R\Release/core.a(usart_f1.c.o)
                                                  C:\Users\Administrator\AppData\Local\Temp\VMBCore\arduino16x\a25b0c93d50495b56da79188cbb05a7a\variant\board.cpp.o
USART3                                            C:\Users\Administrator\AppData\Local\Temp\VMBuilds\LoRa_Roll_Film\stm32_genericSTM32F103R\Release/core.a(usart_f1.c.o)
                                                  C:\Users\Administrator\AppData\Local\Temp\VMBCore\arduino16x\a25b0c93d50495b56da79188cbb05a7a\variant\board.cpp.o
UnPackBCD(char*, int, int)                        BCD_CON.cpp.o
Vertion                                           Memory.cpp.o
Which_LED                                         fun_periph.cpp.o
_Jv_RegisterClasses                               c:/users/administrator/appdata/local/arduino15/packages/arduino/tools/arm-none-eabi-gcc/4.8.3-2014q1/bin/../lib/gcc/arm-none-eabi/4.8.3/armv7-m/crtbegin.o
__adddf3                                          c:/users/administrator/appdata/local/arduino15/packages/arduino/tools/arm-none-eabi-gcc/4.8.3-2014q1/bin/../lib/gcc/arm-none-eabi/4.8.3/armv7-m\libgcc.a(_arm_addsubdf3.o)
__addsf3                                          c:/users/administrator/appdata/local/arduino15/packages/arduino/tools/arm-none-eabi-gcc/4.8.3-2014q1/bin/../lib/gcc/arm-none-eabi/4.8.3/armv7-m\libgcc.a(_arm_addsubsf3.o)
__aeabi_cdcmpeq                                   c:/users/administrator/appdata/local/arduino15/packages/arduino/tools/arm-none-eabi-gcc/4.8.3-2014q1/bin/../lib/gcc/arm-none-eabi/4.8.3/armv7-m\libgcc.a(_arm_cmpdf2.o)
__aeabi_cdcmple                                   c:/users/administrator/appdata/local/arduino15/packages/arduino/tools/arm-none-eabi-gcc/4.8.3-2014q1/bin/../lib/gcc/arm-none-eabi/4.8.3/armv7-m\libgcc.a(_arm_cmpdf2.o)
__aeabi_cdrcmple                                  c:/users/administrator/appdata/local/arduino15/packages/arduino/tools/arm-none-eabi-gcc/4.8.3-2014q1/bin/../lib/gcc/arm-none-eabi/4.8.3/armv7-m\libgcc.a(_arm_cmpdf2.o)
__aeabi_cfcmpeq                                   c:/users/administrator/appdata/local/arduino15/packages/arduino/tools/arm-none-eabi-gcc/4.8.3-2014q1/bin/../lib/gcc/arm-none-eabi/4.8.3/armv7-m\libgcc.a(_arm_cmpsf2.o)
__aeabi_cfcmple                                   c:/users/administrator/appdata/local/arduino15/packages/arduino/tools/arm-none-eabi-gcc/4.8.3-2014q1/bin/../lib/gcc/arm-none-eabi/4.8.3/armv7-m\libgcc.a(_arm_cmpsf2.o)
__aeabi_cfrcmple                                  c:/users/administrator/appdata/local/arduino15/packages/arduino/tools/arm-none-eabi-gcc/4.8.3-2014q1/bin/../lib/gcc/arm-none-eabi/4.8.3/armv7-m\libgcc.a(_arm_cmpsf2.o)
__aeabi_d2f                                       c:/users/administrator/appdata/local/arduino15/packages/arduino/tools/arm-none-eabi-gcc/4.8.3-2014q1/bin/../lib/gcc/arm-none-eabi/4.8.3/armv7-m\libgcc.a(_arm_truncdfsf2.o)
                                                  Motor.cpp.o
                                                  BCD_CON.cpp.o
__aeabi_d2iz                                      c:/users/administrator/appdata/local/arduino15/packages/arduino/tools/arm-none-eabi-gcc/4.8.3-2014q1/bin/../lib/gcc/arm-none-eabi/4.8.3/armv7-m\libgcc.a(_arm_fixdfsi.o)
                                                  C:\Users\Administrator\AppData\Local\Temp\VMBuilds\LoRa_Roll_Film\stm32_genericSTM32F103R\Release/core.a(Print.cpp.o)
                                                  Motor.cpp.o
                                                  BCD_CON.cpp.o
__aeabi_d2lz                                      c:/users/administrator/appdata/local/arduino15/packages/arduino/tools/arm-none-eabi-gcc/4.8.3-2014q1/bin/../lib/gcc/arm-none-eabi/4.8.3/armv7-m\libgcc.a(_fixdfdi.o)
                                                  C:\Users\Administrator\AppData\Local\Temp\VMBuilds\LoRa_Roll_Film\stm32_genericSTM32F103R\Release/core.a(Print.cpp.o)
__aeabi_d2uiz                                     c:/users/administrator/appdata/local/arduino15/packages/arduino/tools/arm-none-eabi-gcc/4.8.3-2014q1/bin/../lib/gcc/arm-none-eabi/4.8.3/armv7-m\libgcc.a(_arm_fixunsdfsi.o)
                                                  c:/users/administrator/appdata/local/arduino15/packages/arduino/tools/arm-none-eabi-gcc/4.8.3-2014q1/bin/../lib/gcc/arm-none-eabi/4.8.3/armv7-m\libgcc.a(_fixunsdfdi.o)
                                                  Motor.cpp.o
                                                  BCD_CON.cpp.o
__aeabi_d2ulz                                     c:/users/administrator/appdata/local/arduino15/packages/arduino/tools/arm-none-eabi-gcc/4.8.3-2014q1/bin/../lib/gcc/arm-none-eabi/4.8.3/armv7-m\libgcc.a(_fixunsdfdi.o)
                                                  c:/users/administrator/appdata/local/arduino15/packages/arduino/tools/arm-none-eabi-gcc/4.8.3-2014q1/bin/../lib/gcc/arm-none-eabi/4.8.3/armv7-m\libgcc.a(_fixdfdi.o)
__aeabi_dadd                                      c:/users/administrator/appdata/local/arduino15/packages/arduino/tools/arm-none-eabi-gcc/4.8.3-2014q1/bin/../lib/gcc/arm-none-eabi/4.8.3/armv7-m\libgcc.a(_arm_addsubdf3.o)
                                                  c:/users/administrator/appdata/local/arduino15/packages/arduino/tools/arm-none-eabi-gcc/4.8.3-2014q1/bin/../lib/gcc/arm-none-eabi/4.8.3/../../../../arm-none-eabi/lib/armv7-m\libm.a(lib_a-s_scalbn.o)
                                                  c:/users/administrator/appdata/local/arduino15/packages/arduino/tools/arm-none-eabi-gcc/4.8.3-2014q1/bin/../lib/gcc/arm-none-eabi/4.8.3/../../../../arm-none-eabi/lib/armv7-m\libm.a(lib_a-s_rint.o)
                                                  c:/users/administrator/appdata/local/arduino15/packages/arduino/tools/arm-none-eabi-gcc/4.8.3-2014q1/bin/../lib/gcc/arm-none-eabi/4.8.3/../../../../arm-none-eabi/lib/armv7-m\libm.a(lib_a-e_sqrt.o)
                                                  c:/users/administrator/appdata/local/arduino15/packages/arduino/tools/arm-none-eabi-gcc/4.8.3-2014q1/bin/../lib/gcc/arm-none-eabi/4.8.3/../../../../arm-none-eabi/lib/armv7-m\libm.a(lib_a-e_pow.o)
                                                  C:\Users\Administrator\AppData\Local\Temp\VMBuilds\LoRa_Roll_Film\stm32_genericSTM32F103R\Release/core.a(Print.cpp.o)
                                                  Motor.cpp.o
                                                  BCD_CON.cpp.o
__aeabi_dcmpeq                                    c:/users/administrator/appdata/local/arduino15/packages/arduino/tools/arm-none-eabi-gcc/4.8.3-2014q1/bin/../lib/gcc/arm-none-eabi/4.8.3/armv7-m\libgcc.a(_arm_cmpdf2.o)
                                                  c:/users/administrator/appdata/local/arduino15/packages/arduino/tools/arm-none-eabi-gcc/4.8.3-2014q1/bin/../lib/gcc/arm-none-eabi/4.8.3/../../../../arm-none-eabi/lib/armv7-m\libm.a(lib_a-w_pow.o)
__aeabi_dcmpge                                    c:/users/administrator/appdata/local/arduino15/packages/arduino/tools/arm-none-eabi-gcc/4.8.3-2014q1/bin/../lib/gcc/arm-none-eabi/4.8.3/armv7-m\libgcc.a(_arm_cmpdf2.o)
                                                  C:\Users\Administrator\AppData\Local\Temp\VMBuilds\LoRa_Roll_Film\stm32_genericSTM32F103R\Release/core.a(Print.cpp.o)
                                                  BCD_CON.cpp.o
__aeabi_dcmpgt                                    c:/users/administrator/appdata/local/arduino15/packages/arduino/tools/arm-none-eabi-gcc/4.8.3-2014q1/bin/../lib/gcc/arm-none-eabi/4.8.3/armv7-m\libgcc.a(_arm_cmpdf2.o)
                                                  c:/users/administrator/appdata/local/arduino15/packages/arduino/tools/arm-none-eabi-gcc/4.8.3-2014q1/bin/../lib/gcc/arm-none-eabi/4.8.3/../../../../arm-none-eabi/lib/armv7-m\libm.a(lib_a-e_pow.o)
                                                  C:\Users\Administrator\AppData\Local\Temp\VMBuilds\LoRa_Roll_Film\stm32_genericSTM32F103R\Release/core.a(Print.cpp.o)
__aeabi_dcmple                                    c:/users/administrator/appdata/local/arduino15/packages/arduino/tools/arm-none-eabi-gcc/4.8.3-2014q1/bin/../lib/gcc/arm-none-eabi/4.8.3/armv7-m\libgcc.a(_arm_cmpdf2.o)
                                                  c:/users/administrator/appdata/local/arduino15/packages/arduino/tools/arm-none-eabi-gcc/4.8.3-2014q1/bin/../lib/gcc/arm-none-eabi/4.8.3/../../../../arm-none-eabi/lib/armv7-m\libm.a(lib_a-e_pow.o)
                                                  C:\Users\Administrator\AppData\Local\Temp\VMBuilds\LoRa_Roll_Film\stm32_genericSTM32F103R\Release/core.a(Print.cpp.o)
__aeabi_dcmplt                                    c:/users/administrator/appdata/local/arduino15/packages/arduino/tools/arm-none-eabi-gcc/4.8.3-2014q1/bin/../lib/gcc/arm-none-eabi/4.8.3/armv7-m\libgcc.a(_arm_cmpdf2.o)
                                                  c:/users/administrator/appdata/local/arduino15/packages/arduino/tools/arm-none-eabi-gcc/4.8.3-2014q1/bin/../lib/gcc/arm-none-eabi/4.8.3/armv7-m\libgcc.a(_fixdfdi.o)
                                                  c:/users/administrator/appdata/local/arduino15/packages/arduino/tools/arm-none-eabi-gcc/4.8.3-2014q1/bin/../lib/gcc/arm-none-eabi/4.8.3/../../../../arm-none-eabi/lib/armv7-m\libm.a(lib_a-w_pow.o)
                                                  C:\Users\Administrator\AppData\Local\Temp\VMBuilds\LoRa_Roll_Film\stm32_genericSTM32F103R\Release/core.a(Print.cpp.o)
__aeabi_ddiv                                      c:/users/administrator/appdata/local/arduino15/packages/arduino/tools/arm-none-eabi-gcc/4.8.3-2014q1/bin/../lib/gcc/arm-none-eabi/4.8.3/armv7-m\libgcc.a(_arm_muldivdf3.o)
                                                  c:/users/administrator/appdata/local/arduino15/packages/arduino/tools/arm-none-eabi-gcc/4.8.3-2014q1/bin/../lib/gcc/arm-none-eabi/4.8.3/../../../../arm-none-eabi/lib/armv7-m\libm.a(lib_a-e_sqrt.o)
                                                  c:/users/administrator/appdata/local/arduino15/packages/arduino/tools/arm-none-eabi-gcc/4.8.3-2014q1/bin/../lib/gcc/arm-none-eabi/4.8.3/../../../../arm-none-eabi/lib/armv7-m\libm.a(lib_a-e_pow.o)
                                                  c:/users/administrator/appdata/local/arduino15/packages/arduino/tools/arm-none-eabi-gcc/4.8.3-2014q1/bin/../lib/gcc/arm-none-eabi/4.8.3/../../../../arm-none-eabi/lib/armv7-m\libm.a(lib_a-w_pow.o)
                                                  C:\Users\Administrator\AppData\Local\Temp\VMBuilds\LoRa_Roll_Film\stm32_genericSTM32F103R\Release/core.a(Print.cpp.o)
                                                  Motor.cpp.o
                                                  BCD_CON.cpp.o
__aeabi_dmul                                      c:/users/administrator/appdata/local/arduino15/packages/arduino/tools/arm-none-eabi-gcc/4.8.3-2014q1/bin/../lib/gcc/arm-none-eabi/4.8.3/armv7-m\libgcc.a(_arm_muldivdf3.o)
                                                  c:/users/administrator/appdata/local/arduino15/packages/arduino/tools/arm-none-eabi-gcc/4.8.3-2014q1/bin/../lib/gcc/arm-none-eabi/4.8.3/armv7-m\libgcc.a(_fixunsdfdi.o)
                                                  c:/users/administrator/appdata/local/arduino15/packages/arduino/tools/arm-none-eabi-gcc/4.8.3-2014q1/bin/../lib/gcc/arm-none-eabi/4.8.3/../../../../arm-none-eabi/lib/armv7-m\libm.a(lib_a-s_scalbn.o)
                                                  c:/users/administrator/appdata/local/arduino15/packages/arduino/tools/arm-none-eabi-gcc/4.8.3-2014q1/bin/../lib/gcc/arm-none-eabi/4.8.3/../../../../arm-none-eabi/lib/armv7-m\libm.a(lib_a-e_sqrt.o)
                                                  c:/users/administrator/appdata/local/arduino15/packages/arduino/tools/arm-none-eabi-gcc/4.8.3-2014q1/bin/../lib/gcc/arm-none-eabi/4.8.3/../../../../arm-none-eabi/lib/armv7-m\libm.a(lib_a-e_pow.o)
                                                  c:/users/administrator/appdata/local/arduino15/packages/arduino/tools/arm-none-eabi-gcc/4.8.3-2014q1/bin/../lib/gcc/arm-none-eabi/4.8.3/../../../../arm-none-eabi/lib/armv7-m\libm.a(lib_a-w_pow.o)
                                                  C:\Users\Administrator\AppData\Local\Temp\VMBuilds\LoRa_Roll_Film\stm32_genericSTM32F103R\Release/core.a(Print.cpp.o)
                                                  Motor.cpp.o
                                                  BCD_CON.cpp.o
__aeabi_drsub                                     c:/users/administrator/appdata/local/arduino15/packages/arduino/tools/arm-none-eabi-gcc/4.8.3-2014q1/bin/../lib/gcc/arm-none-eabi/4.8.3/armv7-m\libgcc.a(_arm_addsubdf3.o)
__aeabi_dsub                                      c:/users/administrator/appdata/local/arduino15/packages/arduino/tools/arm-none-eabi-gcc/4.8.3-2014q1/bin/../lib/gcc/arm-none-eabi/4.8.3/armv7-m\libgcc.a(_arm_addsubdf3.o)
                                                  c:/users/administrator/appdata/local/arduino15/packages/arduino/tools/arm-none-eabi-gcc/4.8.3-2014q1/bin/../lib/gcc/arm-none-eabi/4.8.3/armv7-m\libgcc.a(_fixunsdfdi.o)
                                                  c:/users/administrator/appdata/local/arduino15/packages/arduino/tools/arm-none-eabi-gcc/4.8.3-2014q1/bin/../lib/gcc/arm-none-eabi/4.8.3/../../../../arm-none-eabi/lib/armv7-m\libm.a(lib_a-s_rint.o)
                                                  c:/users/administrator/appdata/local/arduino15/packages/arduino/tools/arm-none-eabi-gcc/4.8.3-2014q1/bin/../lib/gcc/arm-none-eabi/4.8.3/../../../../arm-none-eabi/lib/armv7-m\libm.a(lib_a-e_sqrt.o)
                                                  c:/users/administrator/appdata/local/arduino15/packages/arduino/tools/arm-none-eabi-gcc/4.8.3-2014q1/bin/../lib/gcc/arm-none-eabi/4.8.3/../../../../arm-none-eabi/lib/armv7-m\libm.a(lib_a-e_pow.o)
                                                  C:\Users\Administrator\AppData\Local\Temp\VMBuilds\LoRa_Roll_Film\stm32_genericSTM32F103R\Release/core.a(Print.cpp.o)
                                                  Motor.cpp.o
__aeabi_f2d                                       c:/users/administrator/appdata/local/arduino15/packages/arduino/tools/arm-none-eabi-gcc/4.8.3-2014q1/bin/../lib/gcc/arm-none-eabi/4.8.3/armv7-m\libgcc.a(_arm_addsubdf3.o)
                                                  Motor.cpp.o
                                                  BCD_CON.cpp.o
__aeabi_f2uiz                                     c:/users/administrator/appdata/local/arduino15/packages/arduino/tools/arm-none-eabi-gcc/4.8.3-2014q1/bin/../lib/gcc/arm-none-eabi/4.8.3/armv7-m\libgcc.a(_arm_fixunssfsi.o)
                                                  Motor.cpp.o
__aeabi_fadd                                      c:/users/administrator/appdata/local/arduino15/packages/arduino/tools/arm-none-eabi-gcc/4.8.3-2014q1/bin/../lib/gcc/arm-none-eabi/4.8.3/armv7-m\libgcc.a(_arm_addsubsf3.o)
                                                  Motor.cpp.o
__aeabi_fcmpeq                                    c:/users/administrator/appdata/local/arduino15/packages/arduino/tools/arm-none-eabi-gcc/4.8.3-2014q1/bin/../lib/gcc/arm-none-eabi/4.8.3/armv7-m\libgcc.a(_arm_cmpsf2.o)
__aeabi_fcmpge                                    c:/users/administrator/appdata/local/arduino15/packages/arduino/tools/arm-none-eabi-gcc/4.8.3-2014q1/bin/../lib/gcc/arm-none-eabi/4.8.3/armv7-m\libgcc.a(_arm_cmpsf2.o)
__aeabi_fcmpgt                                    c:/users/administrator/appdata/local/arduino15/packages/arduino/tools/arm-none-eabi-gcc/4.8.3-2014q1/bin/../lib/gcc/arm-none-eabi/4.8.3/armv7-m\libgcc.a(_arm_cmpsf2.o)
                                                  Motor.cpp.o
__aeabi_fcmple                                    c:/users/administrator/appdata/local/arduino15/packages/arduino/tools/arm-none-eabi-gcc/4.8.3-2014q1/bin/../lib/gcc/arm-none-eabi/4.8.3/armv7-m\libgcc.a(_arm_cmpsf2.o)
__aeabi_fcmplt                                    c:/users/administrator/appdata/local/arduino15/packages/arduino/tools/arm-none-eabi-gcc/4.8.3-2014q1/bin/../lib/gcc/arm-none-eabi/4.8.3/armv7-m\libgcc.a(_arm_cmpsf2.o)
__aeabi_fdiv                                      c:/users/administrator/appdata/local/arduino15/packages/arduino/tools/arm-none-eabi-gcc/4.8.3-2014q1/bin/../lib/gcc/arm-none-eabi/4.8.3/armv7-m\libgcc.a(_arm_muldivsf3.o)
                                                  Motor.cpp.o
__aeabi_fmul                                      c:/users/administrator/appdata/local/arduino15/packages/arduino/tools/arm-none-eabi-gcc/4.8.3-2014q1/bin/../lib/gcc/arm-none-eabi/4.8.3/armv7-m\libgcc.a(_arm_muldivsf3.o)
                                                  Motor.cpp.o
__aeabi_frsub                                     c:/users/administrator/appdata/local/arduino15/packages/arduino/tools/arm-none-eabi-gcc/4.8.3-2014q1/bin/../lib/gcc/arm-none-eabi/4.8.3/armv7-m\libgcc.a(_arm_addsubsf3.o)
__aeabi_fsub                                      c:/users/administrator/appdata/local/arduino15/packages/arduino/tools/arm-none-eabi-gcc/4.8.3-2014q1/bin/../lib/gcc/arm-none-eabi/4.8.3/armv7-m\libgcc.a(_arm_addsubsf3.o)
                                                  Motor.cpp.o
__aeabi_i2d                                       c:/users/administrator/appdata/local/arduino15/packages/arduino/tools/arm-none-eabi-gcc/4.8.3-2014q1/bin/../lib/gcc/arm-none-eabi/4.8.3/armv7-m\libgcc.a(_arm_addsubdf3.o)
                                                  c:/users/administrator/appdata/local/arduino15/packages/arduino/tools/arm-none-eabi-gcc/4.8.3-2014q1/bin/../lib/gcc/arm-none-eabi/4.8.3/../../../../arm-none-eabi/lib/armv7-m\libm.a(lib_a-e_pow.o)
                                                  C:\Users\Administrator\AppData\Local\Temp\VMBuilds\LoRa_Roll_Film\stm32_genericSTM32F103R\Release/core.a(Print.cpp.o)
                                                  Motor.cpp.o
                                                  BCD_CON.cpp.o
__aeabi_i2f                                       c:/users/administrator/appdata/local/arduino15/packages/arduino/tools/arm-none-eabi-gcc/4.8.3-2014q1/bin/../lib/gcc/arm-none-eabi/4.8.3/armv7-m\libgcc.a(_arm_addsubsf3.o)
                                                  Motor.cpp.o
__aeabi_idiv0                                     c:/users/administrator/appdata/local/arduino15/packages/arduino/tools/arm-none-eabi-gcc/4.8.3-2014q1/bin/../lib/gcc/arm-none-eabi/4.8.3/armv7-m\libgcc.a(_dvmd_tls.o)
__aeabi_l2d                                       c:/users/administrator/appdata/local/arduino15/packages/arduino/tools/arm-none-eabi-gcc/4.8.3-2014q1/bin/../lib/gcc/arm-none-eabi/4.8.3/armv7-m\libgcc.a(_arm_addsubdf3.o)
                                                  C:\Users\Administrator\AppData\Local\Temp\VMBuilds\LoRa_Roll_Film\stm32_genericSTM32F103R\Release/core.a(Print.cpp.o)
__aeabi_l2f                                       c:/users/administrator/appdata/local/arduino15/packages/arduino/tools/arm-none-eabi-gcc/4.8.3-2014q1/bin/../lib/gcc/arm-none-eabi/4.8.3/armv7-m\libgcc.a(_arm_addsubsf3.o)
__aeabi_ldiv0                                     c:/users/administrator/appdata/local/arduino15/packages/arduino/tools/arm-none-eabi-gcc/4.8.3-2014q1/bin/../lib/gcc/arm-none-eabi/4.8.3/armv7-m\libgcc.a(_dvmd_tls.o)
                                                  c:/users/administrator/appdata/local/arduino15/packages/arduino/tools/arm-none-eabi-gcc/4.8.3-2014q1/bin/../lib/gcc/arm-none-eabi/4.8.3/armv7-m\libgcc.a(_aeabi_uldivmod.o)
__aeabi_ui2d                                      c:/users/administrator/appdata/local/arduino15/packages/arduino/tools/arm-none-eabi-gcc/4.8.3-2014q1/bin/../lib/gcc/arm-none-eabi/4.8.3/armv7-m\libgcc.a(_arm_addsubdf3.o)
                                                  c:/users/administrator/appdata/local/arduino15/packages/arduino/tools/arm-none-eabi-gcc/4.8.3-2014q1/bin/../lib/gcc/arm-none-eabi/4.8.3/armv7-m\libgcc.a(_fixunsdfdi.o)
                                                  Motor.cpp.o
                                                  BCD_CON.cpp.o
__aeabi_ui2f                                      c:/users/administrator/appdata/local/arduino15/packages/arduino/tools/arm-none-eabi-gcc/4.8.3-2014q1/bin/../lib/gcc/arm-none-eabi/4.8.3/armv7-m\libgcc.a(_arm_addsubsf3.o)
                                                  Motor.cpp.o
__aeabi_ul2d                                      c:/users/administrator/appdata/local/arduino15/packages/arduino/tools/arm-none-eabi-gcc/4.8.3-2014q1/bin/../lib/gcc/arm-none-eabi/4.8.3/armv7-m\libgcc.a(_arm_addsubdf3.o)
__aeabi_ul2f                                      c:/users/administrator/appdata/local/arduino15/packages/arduino/tools/arm-none-eabi-gcc/4.8.3-2014q1/bin/../lib/gcc/arm-none-eabi/4.8.3/armv7-m\libgcc.a(_arm_addsubsf3.o)
__aeabi_uldivmod                                  c:/users/administrator/appdata/local/arduino15/packages/arduino/tools/arm-none-eabi-gcc/4.8.3-2014q1/bin/../lib/gcc/arm-none-eabi/4.8.3/armv7-m\libgcc.a(_aeabi_uldivmod.o)
                                                  C:\Users\Administrator\AppData\Local\Temp\VMBuilds\LoRa_Roll_Film\stm32_genericSTM32F103R\Release/core.a(Print.cpp.o)
__assert_func                                     C:\Users\Administrator\AppData\Local\Temp\VMBuilds\LoRa_Roll_Film\stm32_genericSTM32F103R\Release/core.a(util.c.o)
__bss_end__                                       C:\Users\Administrator\AppData\Local\Temp\VMBCore\arduino16x\a25b0c93d50495b56da79188cbb05a7a\variant\start_c.c.o
                                                  c:/users/administrator/appdata/local/arduino15/packages/arduino/tools/arm-none-eabi-gcc/4.8.3-2014q1/bin/../lib/gcc/arm-none-eabi/4.8.3/../../../../arm-none-eabi/lib/armv7-m/crt0.o
__bss_start__                                     C:\Users\Administrator\AppData\Local\Temp\VMBCore\arduino16x\a25b0c93d50495b56da79188cbb05a7a\variant\start_c.c.o
                                                  c:/users/administrator/appdata/local/arduino15/packages/arduino/tools/arm-none-eabi-gcc/4.8.3-2014q1/bin/../lib/gcc/arm-none-eabi/4.8.3/../../../../arm-none-eabi/lib/armv7-m/crt0.o
__call_exitprocs                                  c:/users/administrator/appdata/local/arduino15/packages/arduino/tools/arm-none-eabi-gcc/4.8.3-2014q1/bin/../lib/gcc/arm-none-eabi/4.8.3/../../../../arm-none-eabi/lib/armv7-m\libc.a(lib_a-__call_atexit.o)
                                                  c:/users/administrator/appdata/local/arduino15/packages/arduino/tools/arm-none-eabi-gcc/4.8.3-2014q1/bin/../lib/gcc/arm-none-eabi/4.8.3/../../../../arm-none-eabi/lib/armv7-m\libc.a(lib_a-exit.o)
__cmpdf2                                          c:/users/administrator/appdata/local/arduino15/packages/arduino/tools/arm-none-eabi-gcc/4.8.3-2014q1/bin/../lib/gcc/arm-none-eabi/4.8.3/armv7-m\libgcc.a(_arm_cmpdf2.o)
__cmpsf2                                          c:/users/administrator/appdata/local/arduino15/packages/arduino/tools/arm-none-eabi-gcc/4.8.3-2014q1/bin/../lib/gcc/arm-none-eabi/4.8.3/armv7-m\libgcc.a(_arm_cmpsf2.o)
__cxa_pure_virtual                                C:\Users\Administrator\AppData\Local\Temp\VMBuilds\LoRa_Roll_Film\stm32_genericSTM32F103R\Release/core.a(cxxabi-compat.cpp.o)
                                                  C:\Users\Administrator\AppData\Local\Temp\VMBuilds\LoRa_Roll_Film\stm32_genericSTM32F103R\Release/core.a(Print.cpp.o)
                                                  C:\Users\Administrator\AppData\Local\Temp\VMBuilds\LoRa_Roll_Film\stm32_genericSTM32F103R\Release/core.a(HardwareSerial.cpp.o)
__data_end__                                      C:\Users\Administrator\AppData\Local\Temp\VMBCore\arduino16x\a25b0c93d50495b56da79188cbb05a7a\variant\start_c.c.o
__data_start__                                    C:\Users\Administrator\AppData\Local\Temp\VMBCore\arduino16x\a25b0c93d50495b56da79188cbb05a7a\variant\start_c.c.o
__default_handler                                 C:\Users\Administrator\AppData\Local\Temp\VMBuilds\LoRa_Roll_Film\stm32_genericSTM32F103R\Release/core.a(isrs.S.o)
__deregister_frame_info                           c:/users/administrator/appdata/local/arduino15/packages/arduino/tools/arm-none-eabi-gcc/4.8.3-2014q1/bin/../lib/gcc/arm-none-eabi/4.8.3/armv7-m/crtbegin.o
__divdf3                                          c:/users/administrator/appdata/local/arduino15/packages/arduino/tools/arm-none-eabi-gcc/4.8.3-2014q1/bin/../lib/gcc/arm-none-eabi/4.8.3/armv7-m\libgcc.a(_arm_muldivdf3.o)
__divdi3                                          c:/users/administrator/appdata/local/arduino15/packages/arduino/tools/arm-none-eabi-gcc/4.8.3-2014q1/bin/../lib/gcc/arm-none-eabi/4.8.3/armv7-m\libgcc.a(_divdi3.o)
                                                  c:/users/administrator/appdata/local/arduino15/packages/arduino/tools/arm-none-eabi-gcc/4.8.3-2014q1/bin/../lib/gcc/arm-none-eabi/4.8.3/armv7-m\libgcc.a(bpabi.o)
__divsf3                                          c:/users/administrator/appdata/local/arduino15/packages/arduino/tools/arm-none-eabi-gcc/4.8.3-2014q1/bin/../lib/gcc/arm-none-eabi/4.8.3/armv7-m\libgcc.a(_arm_muldivsf3.o)
__dso_handle                                      c:/users/administrator/appdata/local/arduino15/packages/arduino/tools/arm-none-eabi-gcc/4.8.3-2014q1/bin/../lib/gcc/arm-none-eabi/4.8.3/armv7-m/crtbegin.o
__eqdf2                                           c:/users/administrator/appdata/local/arduino15/packages/arduino/tools/arm-none-eabi-gcc/4.8.3-2014q1/bin/../lib/gcc/arm-none-eabi/4.8.3/armv7-m\libgcc.a(_arm_cmpdf2.o)
__eqsf2                                           c:/users/administrator/appdata/local/arduino15/packages/arduino/tools/arm-none-eabi-gcc/4.8.3-2014q1/bin/../lib/gcc/arm-none-eabi/4.8.3/armv7-m\libgcc.a(_arm_cmpsf2.o)
__errno                                           c:/users/administrator/appdata/local/arduino15/packages/arduino/tools/arm-none-eabi-gcc/4.8.3-2014q1/bin/../lib/gcc/arm-none-eabi/4.8.3/../../../../arm-none-eabi/lib/armv7-m\libc.a(lib_a-errno.o)
                                                  c:/users/administrator/appdata/local/arduino15/packages/arduino/tools/arm-none-eabi-gcc/4.8.3-2014q1/bin/../lib/gcc/arm-none-eabi/4.8.3/../../../../arm-none-eabi/lib/armv7-m\libm.a(lib_a-w_pow.o)
                                                  C:\Users\Administrator\AppData\Local\Temp\VMBCore\arduino16x\a25b0c93d50495b56da79188cbb05a7a\variant\syscalls.c.o
__error                                           C:\Users\Administrator\AppData\Local\Temp\VMBuilds\LoRa_Roll_Film\stm32_genericSTM32F103R\Release/core.a(util.c.o)
                                                  C:\Users\Administrator\AppData\Local\Temp\VMBuilds\LoRa_Roll_Film\stm32_genericSTM32F103R\Release/core.a(exc.S.o)
__exc_busfault                                    C:\Users\Administrator\AppData\Local\Temp\VMBuilds\LoRa_Roll_Film\stm32_genericSTM32F103R\Release/core.a(exc.S.o)
                                                  C:\Users\Administrator\AppData\Local\Temp\VMBuilds\LoRa_Roll_Film\stm32_genericSTM32F103R\Release/core.a(vector_table.S.o)
__exc_debug_monitor                               C:\Users\Administrator\AppData\Local\Temp\VMBuilds\LoRa_Roll_Film\stm32_genericSTM32F103R\Release/core.a(isrs.S.o)
                                                  C:\Users\Administrator\AppData\Local\Temp\VMBuilds\LoRa_Roll_Film\stm32_genericSTM32F103R\Release/core.a(vector_table.S.o)
__exc_hardfault                                   C:\Users\Administrator\AppData\Local\Temp\VMBuilds\LoRa_Roll_Film\stm32_genericSTM32F103R\Release/core.a(exc.S.o)
                                                  C:\Users\Administrator\AppData\Local\Temp\VMBuilds\LoRa_Roll_Film\stm32_genericSTM32F103R\Release/core.a(vector_table.S.o)
__exc_memmanage                                   C:\Users\Administrator\AppData\Local\Temp\VMBuilds\LoRa_Roll_Film\stm32_genericSTM32F103R\Release/core.a(exc.S.o)
                                                  C:\Users\Administrator\AppData\Local\Temp\VMBuilds\LoRa_Roll_Film\stm32_genericSTM32F103R\Release/core.a(vector_table.S.o)
__exc_nmi                                         C:\Users\Administrator\AppData\Local\Temp\VMBuilds\LoRa_Roll_Film\stm32_genericSTM32F103R\Release/core.a(exc.S.o)
                                                  C:\Users\Administrator\AppData\Local\Temp\VMBuilds\LoRa_Roll_Film\stm32_genericSTM32F103R\Release/core.a(vector_table.S.o)
__exc_pendsv                                      C:\Users\Administrator\AppData\Local\Temp\VMBuilds\LoRa_Roll_Film\stm32_genericSTM32F103R\Release/core.a(isrs.S.o)
                                                  C:\Users\Administrator\AppData\Local\Temp\VMBuilds\LoRa_Roll_Film\stm32_genericSTM32F103R\Release/core.a(vector_table.S.o)
__exc_reset                                       C:\Users\Administrator\AppData\Local\Temp\VMBuilds\LoRa_Roll_Film\stm32_genericSTM32F103R\Release/core.a(vector_table.S.o)
__exc_svc                                         C:\Users\Administrator\AppData\Local\Temp\VMBuilds\LoRa_Roll_Film\stm32_genericSTM32F103R\Release/core.a(isrs.S.o)
                                                  C:\Users\Administrator\AppData\Local\Temp\VMBuilds\LoRa_Roll_Film\stm32_genericSTM32F103R\Release/core.a(vector_table.S.o)
__exc_systick                                     C:\Users\Administrator\AppData\Local\Temp\VMBuilds\LoRa_Roll_Film\stm32_genericSTM32F103R\Release/core.a(systick.c.o)
                                                  C:\Users\Administrator\AppData\Local\Temp\VMBuilds\LoRa_Roll_Film\stm32_genericSTM32F103R\Release/core.a(isrs.S.o)
                                                  C:\Users\Administrator\AppData\Local\Temp\VMBuilds\LoRa_Roll_Film\stm32_genericSTM32F103R\Release/core.a(vector_table.S.o)
__exc_usagefault                                  C:\Users\Administrator\AppData\Local\Temp\VMBuilds\LoRa_Roll_Film\stm32_genericSTM32F103R\Release/core.a(exc.S.o)
                                                  C:\Users\Administrator\AppData\Local\Temp\VMBuilds\LoRa_Roll_Film\stm32_genericSTM32F103R\Release/core.a(vector_table.S.o)
__extendsfdf2                                     c:/users/administrator/appdata/local/arduino15/packages/arduino/tools/arm-none-eabi-gcc/4.8.3-2014q1/bin/../lib/gcc/arm-none-eabi/4.8.3/armv7-m\libgcc.a(_arm_addsubdf3.o)
__fdlib_version                                   c:/users/administrator/appdata/local/arduino15/packages/arduino/tools/arm-none-eabi-gcc/4.8.3-2014q1/bin/../lib/gcc/arm-none-eabi/4.8.3/../../../../arm-none-eabi/lib/armv7-m\libm.a(lib_a-s_lib_ver.o)
                                                  c:/users/administrator/appdata/local/arduino15/packages/arduino/tools/arm-none-eabi-gcc/4.8.3-2014q1/bin/../lib/gcc/arm-none-eabi/4.8.3/../../../../arm-none-eabi/lib/armv7-m\libm.a(lib_a-w_pow.o)
__fini_array_end                                  c:/users/administrator/appdata/local/arduino15/packages/arduino/tools/arm-none-eabi-gcc/4.8.3-2014q1/bin/../lib/gcc/arm-none-eabi/4.8.3/../../../../arm-none-eabi/lib/armv7-m\libc.a(lib_a-fini.o)
__fini_array_start                                c:/users/administrator/appdata/local/arduino15/packages/arduino/tools/arm-none-eabi-gcc/4.8.3-2014q1/bin/../lib/gcc/arm-none-eabi/4.8.3/../../../../arm-none-eabi/lib/armv7-m\libc.a(lib_a-fini.o)
__fixdfdi                                         c:/users/administrator/appdata/local/arduino15/packages/arduino/tools/arm-none-eabi-gcc/4.8.3-2014q1/bin/../lib/gcc/arm-none-eabi/4.8.3/armv7-m\libgcc.a(_fixdfdi.o)
__fixdfsi                                         c:/users/administrator/appdata/local/arduino15/packages/arduino/tools/arm-none-eabi-gcc/4.8.3-2014q1/bin/../lib/gcc/arm-none-eabi/4.8.3/armv7-m\libgcc.a(_arm_fixdfsi.o)
__fixunsdfdi                                      c:/users/administrator/appdata/local/arduino15/packages/arduino/tools/arm-none-eabi-gcc/4.8.3-2014q1/bin/../lib/gcc/arm-none-eabi/4.8.3/armv7-m\libgcc.a(_fixunsdfdi.o)
__fixunsdfsi                                      c:/users/administrator/appdata/local/arduino15/packages/arduino/tools/arm-none-eabi-gcc/4.8.3-2014q1/bin/../lib/gcc/arm-none-eabi/4.8.3/armv7-m\libgcc.a(_arm_fixunsdfsi.o)
__fixunssfsi                                      c:/users/administrator/appdata/local/arduino15/packages/arduino/tools/arm-none-eabi-gcc/4.8.3-2014q1/bin/../lib/gcc/arm-none-eabi/4.8.3/armv7-m\libgcc.a(_arm_fixunssfsi.o)
__floatdidf                                       c:/users/administrator/appdata/local/arduino15/packages/arduino/tools/arm-none-eabi-gcc/4.8.3-2014q1/bin/../lib/gcc/arm-none-eabi/4.8.3/armv7-m\libgcc.a(_arm_addsubdf3.o)
__floatdisf                                       c:/users/administrator/appdata/local/arduino15/packages/arduino/tools/arm-none-eabi-gcc/4.8.3-2014q1/bin/../lib/gcc/arm-none-eabi/4.8.3/armv7-m\libgcc.a(_arm_addsubsf3.o)
__floatsidf                                       c:/users/administrator/appdata/local/arduino15/packages/arduino/tools/arm-none-eabi-gcc/4.8.3-2014q1/bin/../lib/gcc/arm-none-eabi/4.8.3/armv7-m\libgcc.a(_arm_addsubdf3.o)
__floatsisf                                       c:/users/administrator/appdata/local/arduino15/packages/arduino/tools/arm-none-eabi-gcc/4.8.3-2014q1/bin/../lib/gcc/arm-none-eabi/4.8.3/armv7-m\libgcc.a(_arm_addsubsf3.o)
__floatundidf                                     c:/users/administrator/appdata/local/arduino15/packages/arduino/tools/arm-none-eabi-gcc/4.8.3-2014q1/bin/../lib/gcc/arm-none-eabi/4.8.3/armv7-m\libgcc.a(_arm_addsubdf3.o)
__floatundisf                                     c:/users/administrator/appdata/local/arduino15/packages/arduino/tools/arm-none-eabi-gcc/4.8.3-2014q1/bin/../lib/gcc/arm-none-eabi/4.8.3/armv7-m\libgcc.a(_arm_addsubsf3.o)
__floatunsidf                                     c:/users/administrator/appdata/local/arduino15/packages/arduino/tools/arm-none-eabi-gcc/4.8.3-2014q1/bin/../lib/gcc/arm-none-eabi/4.8.3/armv7-m\libgcc.a(_arm_addsubdf3.o)
__floatunsisf                                     c:/users/administrator/appdata/local/arduino15/packages/arduino/tools/arm-none-eabi-gcc/4.8.3-2014q1/bin/../lib/gcc/arm-none-eabi/4.8.3/armv7-m\libgcc.a(_arm_addsubsf3.o)
__fpclassifyd                                     c:/users/administrator/appdata/local/arduino15/packages/arduino/tools/arm-none-eabi-gcc/4.8.3-2014q1/bin/../lib/gcc/arm-none-eabi/4.8.3/../../../../arm-none-eabi/lib/armv7-m\libm.a(lib_a-s_fpclassify.o)
                                                  c:/users/administrator/appdata/local/arduino15/packages/arduino/tools/arm-none-eabi-gcc/4.8.3-2014q1/bin/../lib/gcc/arm-none-eabi/4.8.3/../../../../arm-none-eabi/lib/armv7-m\libm.a(lib_a-w_pow.o)
__gedf2                                           c:/users/administrator/appdata/local/arduino15/packages/arduino/tools/arm-none-eabi-gcc/4.8.3-2014q1/bin/../lib/gcc/arm-none-eabi/4.8.3/armv7-m\libgcc.a(_arm_cmpdf2.o)
__gesf2                                           c:/users/administrator/appdata/local/arduino15/packages/arduino/tools/arm-none-eabi-gcc/4.8.3-2014q1/bin/../lib/gcc/arm-none-eabi/4.8.3/armv7-m\libgcc.a(_arm_cmpsf2.o)
__gettzinfo                                       c:/users/administrator/appdata/local/arduino15/packages/arduino/tools/arm-none-eabi-gcc/4.8.3-2014q1/bin/../lib/gcc/arm-none-eabi/4.8.3/../../../../arm-none-eabi/lib/armv7-m\libc.a(lib_a-gettzinfo.o)
                                                  c:/users/administrator/appdata/local/arduino15/packages/arduino/tools/arm-none-eabi-gcc/4.8.3-2014q1/bin/../lib/gcc/arm-none-eabi/4.8.3/../../../../arm-none-eabi/lib/armv7-m\libc.a(lib_a-mktm_r.o)
                                                  c:/users/administrator/appdata/local/arduino15/packages/arduino/tools/arm-none-eabi-gcc/4.8.3-2014q1/bin/../lib/gcc/arm-none-eabi/4.8.3/../../../../arm-none-eabi/lib/armv7-m\libc.a(lib_a-mktime.o)
__gnu_ldivmod_helper                              c:/users/administrator/appdata/local/arduino15/packages/arduino/tools/arm-none-eabi-gcc/4.8.3-2014q1/bin/../lib/gcc/arm-none-eabi/4.8.3/armv7-m\libgcc.a(bpabi.o)
__gnu_uldivmod_helper                             c:/users/administrator/appdata/local/arduino15/packages/arduino/tools/arm-none-eabi-gcc/4.8.3-2014q1/bin/../lib/gcc/arm-none-eabi/4.8.3/armv7-m\libgcc.a(bpabi.o)
                                                  c:/users/administrator/appdata/local/arduino15/packages/arduino/tools/arm-none-eabi-gcc/4.8.3-2014q1/bin/../lib/gcc/arm-none-eabi/4.8.3/armv7-m\libgcc.a(_aeabi_uldivmod.o)
__gtdf2                                           c:/users/administrator/appdata/local/arduino15/packages/arduino/tools/arm-none-eabi-gcc/4.8.3-2014q1/bin/../lib/gcc/arm-none-eabi/4.8.3/armv7-m\libgcc.a(_arm_cmpdf2.o)
__gtsf2                                           c:/users/administrator/appdata/local/arduino15/packages/arduino/tools/arm-none-eabi-gcc/4.8.3-2014q1/bin/../lib/gcc/arm-none-eabi/4.8.3/armv7-m\libgcc.a(_arm_cmpsf2.o)
__ieee754_pow                                     c:/users/administrator/appdata/local/arduino15/packages/arduino/tools/arm-none-eabi-gcc/4.8.3-2014q1/bin/../lib/gcc/arm-none-eabi/4.8.3/../../../../arm-none-eabi/lib/armv7-m\libm.a(lib_a-e_pow.o)
                                                  c:/users/administrator/appdata/local/arduino15/packages/arduino/tools/arm-none-eabi-gcc/4.8.3-2014q1/bin/../lib/gcc/arm-none-eabi/4.8.3/../../../../arm-none-eabi/lib/armv7-m\libm.a(lib_a-w_pow.o)
__ieee754_sqrt                                    c:/users/administrator/appdata/local/arduino15/packages/arduino/tools/arm-none-eabi-gcc/4.8.3-2014q1/bin/../lib/gcc/arm-none-eabi/4.8.3/../../../../arm-none-eabi/lib/armv7-m\libm.a(lib_a-e_sqrt.o)
                                                  c:/users/administrator/appdata/local/arduino15/packages/arduino/tools/arm-none-eabi-gcc/4.8.3-2014q1/bin/../lib/gcc/arm-none-eabi/4.8.3/../../../../arm-none-eabi/lib/armv7-m\libm.a(lib_a-e_pow.o)
__init_array_end                                  c:/users/administrator/appdata/local/arduino15/packages/arduino/tools/arm-none-eabi-gcc/4.8.3-2014q1/bin/../lib/gcc/arm-none-eabi/4.8.3/../../../../arm-none-eabi/lib/armv7-m\libc.a(lib_a-init.o)
__init_array_start                                c:/users/administrator/appdata/local/arduino15/packages/arduino/tools/arm-none-eabi-gcc/4.8.3-2014q1/bin/../lib/gcc/arm-none-eabi/4.8.3/../../../../arm-none-eabi/lib/armv7-m\libc.a(lib_a-init.o)
__irq_adc                                         C:\Users\Administrator\AppData\Local\Temp\VMBuilds\LoRa_Roll_Film\stm32_genericSTM32F103R\Release/core.a(adc_f1.c.o)
                                                  C:\Users\Administrator\AppData\Local\Temp\VMBuilds\LoRa_Roll_Film\stm32_genericSTM32F103R\Release/core.a(isrs.S.o)
                                                  C:\Users\Administrator\AppData\Local\Temp\VMBuilds\LoRa_Roll_Film\stm32_genericSTM32F103R\Release/core.a(vector_table.S.o)
__irq_adc3                                        C:\Users\Administrator\AppData\Local\Temp\VMBuilds\LoRa_Roll_Film\stm32_genericSTM32F103R\Release/core.a(adc_f1.c.o)
                                                  C:\Users\Administrator\AppData\Local\Temp\VMBuilds\LoRa_Roll_Film\stm32_genericSTM32F103R\Release/core.a(isrs.S.o)
                                                  C:\Users\Administrator\AppData\Local\Temp\VMBuilds\LoRa_Roll_Film\stm32_genericSTM32F103R\Release/core.a(vector_table.S.o)
__irq_can_rx1                                     C:\Users\Administrator\AppData\Local\Temp\VMBuilds\LoRa_Roll_Film\stm32_genericSTM32F103R\Release/core.a(isrs.S.o)
                                                  C:\Users\Administrator\AppData\Local\Temp\VMBuilds\LoRa_Roll_Film\stm32_genericSTM32F103R\Release/core.a(vector_table.S.o)
__irq_can_sce                                     C:\Users\Administrator\AppData\Local\Temp\VMBuilds\LoRa_Roll_Film\stm32_genericSTM32F103R\Release/core.a(isrs.S.o)
                                                  C:\Users\Administrator\AppData\Local\Temp\VMBuilds\LoRa_Roll_Film\stm32_genericSTM32F103R\Release/core.a(vector_table.S.o)
__irq_dma1_channel1                               C:\Users\Administrator\AppData\Local\Temp\VMBuilds\LoRa_Roll_Film\stm32_genericSTM32F103R\Release/core.a(isrs.S.o)
                                                  C:\Users\Administrator\AppData\Local\Temp\VMBuilds\LoRa_Roll_Film\stm32_genericSTM32F103R\Release/core.a(vector_table.S.o)
__irq_dma1_channel2                               C:\Users\Administrator\AppData\Local\Temp\VMBuilds\LoRa_Roll_Film\stm32_genericSTM32F103R\Release/core.a(isrs.S.o)
                                                  C:\Users\Administrator\AppData\Local\Temp\VMBuilds\LoRa_Roll_Film\stm32_genericSTM32F103R\Release/core.a(vector_table.S.o)
__irq_dma1_channel3                               C:\Users\Administrator\AppData\Local\Temp\VMBuilds\LoRa_Roll_Film\stm32_genericSTM32F103R\Release/core.a(isrs.S.o)
                                                  C:\Users\Administrator\AppData\Local\Temp\VMBuilds\LoRa_Roll_Film\stm32_genericSTM32F103R\Release/core.a(vector_table.S.o)
__irq_dma1_channel4                               C:\Users\Administrator\AppData\Local\Temp\VMBuilds\LoRa_Roll_Film\stm32_genericSTM32F103R\Release/core.a(isrs.S.o)
                                                  C:\Users\Administrator\AppData\Local\Temp\VMBuilds\LoRa_Roll_Film\stm32_genericSTM32F103R\Release/core.a(vector_table.S.o)
__irq_dma1_channel5                               C:\Users\Administrator\AppData\Local\Temp\VMBuilds\LoRa_Roll_Film\stm32_genericSTM32F103R\Release/core.a(isrs.S.o)
                                                  C:\Users\Administrator\AppData\Local\Temp\VMBuilds\LoRa_Roll_Film\stm32_genericSTM32F103R\Release/core.a(vector_table.S.o)
__irq_dma1_channel6                               C:\Users\Administrator\AppData\Local\Temp\VMBuilds\LoRa_Roll_Film\stm32_genericSTM32F103R\Release/core.a(isrs.S.o)
                                                  C:\Users\Administrator\AppData\Local\Temp\VMBuilds\LoRa_Roll_Film\stm32_genericSTM32F103R\Release/core.a(vector_table.S.o)
__irq_dma1_channel7                               C:\Users\Administrator\AppData\Local\Temp\VMBuilds\LoRa_Roll_Film\stm32_genericSTM32F103R\Release/core.a(isrs.S.o)
                                                  C:\Users\Administrator\AppData\Local\Temp\VMBuilds\LoRa_Roll_Film\stm32_genericSTM32F103R\Release/core.a(vector_table.S.o)
__irq_dma2_channel1                               C:\Users\Administrator\AppData\Local\Temp\VMBuilds\LoRa_Roll_Film\stm32_genericSTM32F103R\Release/core.a(isrs.S.o)
                                                  C:\Users\Administrator\AppData\Local\Temp\VMBuilds\LoRa_Roll_Film\stm32_genericSTM32F103R\Release/core.a(vector_table.S.o)
__irq_dma2_channel2                               C:\Users\Administrator\AppData\Local\Temp\VMBuilds\LoRa_Roll_Film\stm32_genericSTM32F103R\Release/core.a(isrs.S.o)
                                                  C:\Users\Administrator\AppData\Local\Temp\VMBuilds\LoRa_Roll_Film\stm32_genericSTM32F103R\Release/core.a(vector_table.S.o)
__irq_dma2_channel3                               C:\Users\Administrator\AppData\Local\Temp\VMBuilds\LoRa_Roll_Film\stm32_genericSTM32F103R\Release/core.a(isrs.S.o)
                                                  C:\Users\Administrator\AppData\Local\Temp\VMBuilds\LoRa_Roll_Film\stm32_genericSTM32F103R\Release/core.a(vector_table.S.o)
__irq_dma2_channel4_5                             C:\Users\Administrator\AppData\Local\Temp\VMBuilds\LoRa_Roll_Film\stm32_genericSTM32F103R\Release/core.a(isrs.S.o)
                                                  C:\Users\Administrator\AppData\Local\Temp\VMBuilds\LoRa_Roll_Film\stm32_genericSTM32F103R\Release/core.a(vector_table.S.o)
__irq_exti0                                       C:\Users\Administrator\AppData\Local\Temp\VMBuilds\LoRa_Roll_Film\stm32_genericSTM32F103R\Release/core.a(exti.c.o)
                                                  C:\Users\Administrator\AppData\Local\Temp\VMBuilds\LoRa_Roll_Film\stm32_genericSTM32F103R\Release/core.a(isrs.S.o)
                                                  C:\Users\Administrator\AppData\Local\Temp\VMBuilds\LoRa_Roll_Film\stm32_genericSTM32F103R\Release/core.a(vector_table.S.o)
__irq_exti1                                       C:\Users\Administrator\AppData\Local\Temp\VMBuilds\LoRa_Roll_Film\stm32_genericSTM32F103R\Release/core.a(exti.c.o)
                                                  C:\Users\Administrator\AppData\Local\Temp\VMBuilds\LoRa_Roll_Film\stm32_genericSTM32F103R\Release/core.a(isrs.S.o)
                                                  C:\Users\Administrator\AppData\Local\Temp\VMBuilds\LoRa_Roll_Film\stm32_genericSTM32F103R\Release/core.a(vector_table.S.o)
__irq_exti15_10                                   C:\Users\Administrator\AppData\Local\Temp\VMBuilds\LoRa_Roll_Film\stm32_genericSTM32F103R\Release/core.a(exti.c.o)
                                                  C:\Users\Administrator\AppData\Local\Temp\VMBuilds\LoRa_Roll_Film\stm32_genericSTM32F103R\Release/core.a(isrs.S.o)
                                                  C:\Users\Administrator\AppData\Local\Temp\VMBuilds\LoRa_Roll_Film\stm32_genericSTM32F103R\Release/core.a(vector_table.S.o)
__irq_exti2                                       C:\Users\Administrator\AppData\Local\Temp\VMBuilds\LoRa_Roll_Film\stm32_genericSTM32F103R\Release/core.a(exti.c.o)
                                                  C:\Users\Administrator\AppData\Local\Temp\VMBuilds\LoRa_Roll_Film\stm32_genericSTM32F103R\Release/core.a(isrs.S.o)
                                                  C:\Users\Administrator\AppData\Local\Temp\VMBuilds\LoRa_Roll_Film\stm32_genericSTM32F103R\Release/core.a(vector_table.S.o)
__irq_exti3                                       C:\Users\Administrator\AppData\Local\Temp\VMBuilds\LoRa_Roll_Film\stm32_genericSTM32F103R\Release/core.a(exti.c.o)
                                                  C:\Users\Administrator\AppData\Local\Temp\VMBuilds\LoRa_Roll_Film\stm32_genericSTM32F103R\Release/core.a(isrs.S.o)
                                                  C:\Users\Administrator\AppData\Local\Temp\VMBuilds\LoRa_Roll_Film\stm32_genericSTM32F103R\Release/core.a(vector_table.S.o)
__irq_exti4                                       C:\Users\Administrator\AppData\Local\Temp\VMBuilds\LoRa_Roll_Film\stm32_genericSTM32F103R\Release/core.a(exti.c.o)
                                                  C:\Users\Administrator\AppData\Local\Temp\VMBuilds\LoRa_Roll_Film\stm32_genericSTM32F103R\Release/core.a(isrs.S.o)
                                                  C:\Users\Administrator\AppData\Local\Temp\VMBuilds\LoRa_Roll_Film\stm32_genericSTM32F103R\Release/core.a(vector_table.S.o)
__irq_exti9_5                                     C:\Users\Administrator\AppData\Local\Temp\VMBuilds\LoRa_Roll_Film\stm32_genericSTM32F103R\Release/core.a(exti.c.o)
                                                  C:\Users\Administrator\AppData\Local\Temp\VMBuilds\LoRa_Roll_Film\stm32_genericSTM32F103R\Release/core.a(isrs.S.o)
                                                  C:\Users\Administrator\AppData\Local\Temp\VMBuilds\LoRa_Roll_Film\stm32_genericSTM32F103R\Release/core.a(vector_table.S.o)
__irq_flash                                       C:\Users\Administrator\AppData\Local\Temp\VMBuilds\LoRa_Roll_Film\stm32_genericSTM32F103R\Release/core.a(isrs.S.o)
                                                  C:\Users\Administrator\AppData\Local\Temp\VMBuilds\LoRa_Roll_Film\stm32_genericSTM32F103R\Release/core.a(vector_table.S.o)
__irq_fsmc                                        C:\Users\Administrator\AppData\Local\Temp\VMBuilds\LoRa_Roll_Film\stm32_genericSTM32F103R\Release/core.a(isrs.S.o)
                                                  C:\Users\Administrator\AppData\Local\Temp\VMBuilds\LoRa_Roll_Film\stm32_genericSTM32F103R\Release/core.a(vector_table.S.o)
__irq_i2c1_er                                     C:\Users\Administrator\AppData\Local\Temp\VMBuilds\LoRa_Roll_Film\stm32_genericSTM32F103R\Release/core.a(isrs.S.o)
                                                  C:\Users\Administrator\AppData\Local\Temp\VMBuilds\LoRa_Roll_Film\stm32_genericSTM32F103R\Release/core.a(vector_table.S.o)
__irq_i2c1_ev                                     C:\Users\Administrator\AppData\Local\Temp\VMBuilds\LoRa_Roll_Film\stm32_genericSTM32F103R\Release/core.a(isrs.S.o)
                                                  C:\Users\Administrator\AppData\Local\Temp\VMBuilds\LoRa_Roll_Film\stm32_genericSTM32F103R\Release/core.a(vector_table.S.o)
__irq_i2c2_er                                     C:\Users\Administrator\AppData\Local\Temp\VMBuilds\LoRa_Roll_Film\stm32_genericSTM32F103R\Release/core.a(isrs.S.o)
                                                  C:\Users\Administrator\AppData\Local\Temp\VMBuilds\LoRa_Roll_Film\stm32_genericSTM32F103R\Release/core.a(vector_table.S.o)
__irq_i2c2_ev                                     C:\Users\Administrator\AppData\Local\Temp\VMBuilds\LoRa_Roll_Film\stm32_genericSTM32F103R\Release/core.a(isrs.S.o)
                                                  C:\Users\Administrator\AppData\Local\Temp\VMBuilds\LoRa_Roll_Film\stm32_genericSTM32F103R\Release/core.a(vector_table.S.o)
__irq_pvd                                         C:\Users\Administrator\AppData\Local\Temp\VMBuilds\LoRa_Roll_Film\stm32_genericSTM32F103R\Release/core.a(isrs.S.o)
                                                  C:\Users\Administrator\AppData\Local\Temp\VMBuilds\LoRa_Roll_Film\stm32_genericSTM32F103R\Release/core.a(vector_table.S.o)
__irq_rcc                                         C:\Users\Administrator\AppData\Local\Temp\VMBuilds\LoRa_Roll_Film\stm32_genericSTM32F103R\Release/core.a(isrs.S.o)
                                                  C:\Users\Administrator\AppData\Local\Temp\VMBuilds\LoRa_Roll_Film\stm32_genericSTM32F103R\Release/core.a(vector_table.S.o)
__irq_rtc                                         RTClock\utility\rtc_util.c.o
                                                  C:\Users\Administrator\AppData\Local\Temp\VMBuilds\LoRa_Roll_Film\stm32_genericSTM32F103R\Release/core.a(vector_table.S.o)
__irq_rtcalarm                                    RTClock\utility\rtc_util.c.o
                                                  C:\Users\Administrator\AppData\Local\Temp\VMBuilds\LoRa_Roll_Film\stm32_genericSTM32F103R\Release/core.a(vector_table.S.o)
__irq_sdio                                        C:\Users\Administrator\AppData\Local\Temp\VMBuilds\LoRa_Roll_Film\stm32_genericSTM32F103R\Release/core.a(isrs.S.o)
                                                  C:\Users\Administrator\AppData\Local\Temp\VMBuilds\LoRa_Roll_Film\stm32_genericSTM32F103R\Release/core.a(vector_table.S.o)
__irq_spi1                                        C:\Users\Administrator\AppData\Local\Temp\VMBuilds\LoRa_Roll_Film\stm32_genericSTM32F103R\Release/core.a(isrs.S.o)
                                                  C:\Users\Administrator\AppData\Local\Temp\VMBuilds\LoRa_Roll_Film\stm32_genericSTM32F103R\Release/core.a(vector_table.S.o)
__irq_spi2                                        C:\Users\Administrator\AppData\Local\Temp\VMBuilds\LoRa_Roll_Film\stm32_genericSTM32F103R\Release/core.a(isrs.S.o)
                                                  C:\Users\Administrator\AppData\Local\Temp\VMBuilds\LoRa_Roll_Film\stm32_genericSTM32F103R\Release/core.a(vector_table.S.o)
__irq_spi3                                        C:\Users\Administrator\AppData\Local\Temp\VMBuilds\LoRa_Roll_Film\stm32_genericSTM32F103R\Release/core.a(isrs.S.o)
                                                  C:\Users\Administrator\AppData\Local\Temp\VMBuilds\LoRa_Roll_Film\stm32_genericSTM32F103R\Release/core.a(vector_table.S.o)
__irq_tamper                                      C:\Users\Administrator\AppData\Local\Temp\VMBuilds\LoRa_Roll_Film\stm32_genericSTM32F103R\Release/core.a(isrs.S.o)
                                                  C:\Users\Administrator\AppData\Local\Temp\VMBuilds\LoRa_Roll_Film\stm32_genericSTM32F103R\Release/core.a(vector_table.S.o)
__irq_tim1_brk                                    C:\Users\Administrator\AppData\Local\Temp\VMBuilds\LoRa_Roll_Film\stm32_genericSTM32F103R\Release/core.a(timer.c.o)
                                                  C:\Users\Administrator\AppData\Local\Temp\VMBuilds\LoRa_Roll_Film\stm32_genericSTM32F103R\Release/core.a(isrs.S.o)
                                                  C:\Users\Administrator\AppData\Local\Temp\VMBuilds\LoRa_Roll_Film\stm32_genericSTM32F103R\Release/core.a(vector_table.S.o)
__irq_tim1_cc                                     C:\Users\Administrator\AppData\Local\Temp\VMBuilds\LoRa_Roll_Film\stm32_genericSTM32F103R\Release/core.a(timer.c.o)
                                                  C:\Users\Administrator\AppData\Local\Temp\VMBuilds\LoRa_Roll_Film\stm32_genericSTM32F103R\Release/core.a(isrs.S.o)
                                                  C:\Users\Administrator\AppData\Local\Temp\VMBuilds\LoRa_Roll_Film\stm32_genericSTM32F103R\Release/core.a(vector_table.S.o)
__irq_tim1_trg_com                                C:\Users\Administrator\AppData\Local\Temp\VMBuilds\LoRa_Roll_Film\stm32_genericSTM32F103R\Release/core.a(timer.c.o)
                                                  C:\Users\Administrator\AppData\Local\Temp\VMBuilds\LoRa_Roll_Film\stm32_genericSTM32F103R\Release/core.a(isrs.S.o)
                                                  C:\Users\Administrator\AppData\Local\Temp\VMBuilds\LoRa_Roll_Film\stm32_genericSTM32F103R\Release/core.a(vector_table.S.o)
__irq_tim1_up                                     C:\Users\Administrator\AppData\Local\Temp\VMBuilds\LoRa_Roll_Film\stm32_genericSTM32F103R\Release/core.a(timer.c.o)
                                                  C:\Users\Administrator\AppData\Local\Temp\VMBuilds\LoRa_Roll_Film\stm32_genericSTM32F103R\Release/core.a(isrs.S.o)
                                                  C:\Users\Administrator\AppData\Local\Temp\VMBuilds\LoRa_Roll_Film\stm32_genericSTM32F103R\Release/core.a(vector_table.S.o)
__irq_tim2                                        C:\Users\Administrator\AppData\Local\Temp\VMBuilds\LoRa_Roll_Film\stm32_genericSTM32F103R\Release/core.a(timer.c.o)
                                                  C:\Users\Administrator\AppData\Local\Temp\VMBuilds\LoRa_Roll_Film\stm32_genericSTM32F103R\Release/core.a(vector_table.S.o)
__irq_tim3                                        C:\Users\Administrator\AppData\Local\Temp\VMBuilds\LoRa_Roll_Film\stm32_genericSTM32F103R\Release/core.a(timer.c.o)
                                                  C:\Users\Administrator\AppData\Local\Temp\VMBuilds\LoRa_Roll_Film\stm32_genericSTM32F103R\Release/core.a(vector_table.S.o)
__irq_tim4                                        C:\Users\Administrator\AppData\Local\Temp\VMBuilds\LoRa_Roll_Film\stm32_genericSTM32F103R\Release/core.a(timer.c.o)
                                                  C:\Users\Administrator\AppData\Local\Temp\VMBuilds\LoRa_Roll_Film\stm32_genericSTM32F103R\Release/core.a(vector_table.S.o)
__irq_tim5                                        C:\Users\Administrator\AppData\Local\Temp\VMBuilds\LoRa_Roll_Film\stm32_genericSTM32F103R\Release/core.a(timer.c.o)
                                                  C:\Users\Administrator\AppData\Local\Temp\VMBuilds\LoRa_Roll_Film\stm32_genericSTM32F103R\Release/core.a(isrs.S.o)
                                                  C:\Users\Administrator\AppData\Local\Temp\VMBuilds\LoRa_Roll_Film\stm32_genericSTM32F103R\Release/core.a(vector_table.S.o)
__irq_tim6                                        C:\Users\Administrator\AppData\Local\Temp\VMBuilds\LoRa_Roll_Film\stm32_genericSTM32F103R\Release/core.a(timer.c.o)
                                                  C:\Users\Administrator\AppData\Local\Temp\VMBuilds\LoRa_Roll_Film\stm32_genericSTM32F103R\Release/core.a(isrs.S.o)
                                                  C:\Users\Administrator\AppData\Local\Temp\VMBuilds\LoRa_Roll_Film\stm32_genericSTM32F103R\Release/core.a(vector_table.S.o)
__irq_tim7                                        C:\Users\Administrator\AppData\Local\Temp\VMBuilds\LoRa_Roll_Film\stm32_genericSTM32F103R\Release/core.a(timer.c.o)
                                                  C:\Users\Administrator\AppData\Local\Temp\VMBuilds\LoRa_Roll_Film\stm32_genericSTM32F103R\Release/core.a(isrs.S.o)
                                                  C:\Users\Administrator\AppData\Local\Temp\VMBuilds\LoRa_Roll_Film\stm32_genericSTM32F103R\Release/core.a(vector_table.S.o)
__irq_tim8_brk                                    C:\Users\Administrator\AppData\Local\Temp\VMBuilds\LoRa_Roll_Film\stm32_genericSTM32F103R\Release/core.a(timer.c.o)
                                                  C:\Users\Administrator\AppData\Local\Temp\VMBuilds\LoRa_Roll_Film\stm32_genericSTM32F103R\Release/core.a(isrs.S.o)
                                                  C:\Users\Administrator\AppData\Local\Temp\VMBuilds\LoRa_Roll_Film\stm32_genericSTM32F103R\Release/core.a(vector_table.S.o)
__irq_tim8_cc                                     C:\Users\Administrator\AppData\Local\Temp\VMBuilds\LoRa_Roll_Film\stm32_genericSTM32F103R\Release/core.a(timer.c.o)
                                                  C:\Users\Administrator\AppData\Local\Temp\VMBuilds\LoRa_Roll_Film\stm32_genericSTM32F103R\Release/core.a(isrs.S.o)
                                                  C:\Users\Administrator\AppData\Local\Temp\VMBuilds\LoRa_Roll_Film\stm32_genericSTM32F103R\Release/core.a(vector_table.S.o)
__irq_tim8_trg_com                                C:\Users\Administrator\AppData\Local\Temp\VMBuilds\LoRa_Roll_Film\stm32_genericSTM32F103R\Release/core.a(timer.c.o)
                                                  C:\Users\Administrator\AppData\Local\Temp\VMBuilds\LoRa_Roll_Film\stm32_genericSTM32F103R\Release/core.a(isrs.S.o)
                                                  C:\Users\Administrator\AppData\Local\Temp\VMBuilds\LoRa_Roll_Film\stm32_genericSTM32F103R\Release/core.a(vector_table.S.o)
__irq_tim8_up                                     C:\Users\Administrator\AppData\Local\Temp\VMBuilds\LoRa_Roll_Film\stm32_genericSTM32F103R\Release/core.a(timer.c.o)
                                                  C:\Users\Administrator\AppData\Local\Temp\VMBuilds\LoRa_Roll_Film\stm32_genericSTM32F103R\Release/core.a(isrs.S.o)
                                                  C:\Users\Administrator\AppData\Local\Temp\VMBuilds\LoRa_Roll_Film\stm32_genericSTM32F103R\Release/core.a(vector_table.S.o)
__irq_uart4                                       C:\Users\Administrator\AppData\Local\Temp\VMBuilds\LoRa_Roll_Film\stm32_genericSTM32F103R\Release/core.a(usart_f1.c.o)
                                                  C:\Users\Administrator\AppData\Local\Temp\VMBuilds\LoRa_Roll_Film\stm32_genericSTM32F103R\Release/core.a(isrs.S.o)
                                                  C:\Users\Administrator\AppData\Local\Temp\VMBuilds\LoRa_Roll_Film\stm32_genericSTM32F103R\Release/core.a(vector_table.S.o)
__irq_uart5                                       C:\Users\Administrator\AppData\Local\Temp\VMBuilds\LoRa_Roll_Film\stm32_genericSTM32F103R\Release/core.a(usart_f1.c.o)
                                                  C:\Users\Administrator\AppData\Local\Temp\VMBuilds\LoRa_Roll_Film\stm32_genericSTM32F103R\Release/core.a(isrs.S.o)
                                                  C:\Users\Administrator\AppData\Local\Temp\VMBuilds\LoRa_Roll_Film\stm32_genericSTM32F103R\Release/core.a(vector_table.S.o)
__irq_usart1                                      C:\Users\Administrator\AppData\Local\Temp\VMBuilds\LoRa_Roll_Film\stm32_genericSTM32F103R\Release/core.a(usart_f1.c.o)
                                                  C:\Users\Administrator\AppData\Local\Temp\VMBuilds\LoRa_Roll_Film\stm32_genericSTM32F103R\Release/core.a(isrs.S.o)
                                                  C:\Users\Administrator\AppData\Local\Temp\VMBuilds\LoRa_Roll_Film\stm32_genericSTM32F103R\Release/core.a(vector_table.S.o)
__irq_usart2                                      C:\Users\Administrator\AppData\Local\Temp\VMBuilds\LoRa_Roll_Film\stm32_genericSTM32F103R\Release/core.a(usart_f1.c.o)
                                                  C:\Users\Administrator\AppData\Local\Temp\VMBuilds\LoRa_Roll_Film\stm32_genericSTM32F103R\Release/core.a(isrs.S.o)
                                                  C:\Users\Administrator\AppData\Local\Temp\VMBuilds\LoRa_Roll_Film\stm32_genericSTM32F103R\Release/core.a(vector_table.S.o)
__irq_usart3                                      C:\Users\Administrator\AppData\Local\Temp\VMBuilds\LoRa_Roll_Film\stm32_genericSTM32F103R\Release/core.a(usart_f1.c.o)
                                                  C:\Users\Administrator\AppData\Local\Temp\VMBuilds\LoRa_Roll_Film\stm32_genericSTM32F103R\Release/core.a(isrs.S.o)
                                                  C:\Users\Administrator\AppData\Local\Temp\VMBuilds\LoRa_Roll_Film\stm32_genericSTM32F103R\Release/core.a(vector_table.S.o)
__irq_usb_hp_can_tx                               C:\Users\Administrator\AppData\Local\Temp\VMBuilds\LoRa_Roll_Film\stm32_genericSTM32F103R\Release/core.a(isrs.S.o)
                                                  C:\Users\Administrator\AppData\Local\Temp\VMBuilds\LoRa_Roll_Film\stm32_genericSTM32F103R\Release/core.a(vector_table.S.o)
__irq_usb_lp_can_rx0                              C:\Users\Administrator\AppData\Local\Temp\VMBuilds\LoRa_Roll_Film\stm32_genericSTM32F103R\Release/core.a(isrs.S.o)
                                                  C:\Users\Administrator\AppData\Local\Temp\VMBuilds\LoRa_Roll_Film\stm32_genericSTM32F103R\Release/core.a(vector_table.S.o)
__irq_usbwakeup                                   C:\Users\Administrator\AppData\Local\Temp\VMBuilds\LoRa_Roll_Film\stm32_genericSTM32F103R\Release/core.a(isrs.S.o)
                                                  C:\Users\Administrator\AppData\Local\Temp\VMBuilds\LoRa_Roll_Film\stm32_genericSTM32F103R\Release/core.a(vector_table.S.o)
__irq_wwdg                                        C:\Users\Administrator\AppData\Local\Temp\VMBuilds\LoRa_Roll_Film\stm32_genericSTM32F103R\Release/core.a(isrs.S.o)
                                                  C:\Users\Administrator\AppData\Local\Temp\VMBuilds\LoRa_Roll_Film\stm32_genericSTM32F103R\Release/core.a(vector_table.S.o)
__ledf2                                           c:/users/administrator/appdata/local/arduino15/packages/arduino/tools/arm-none-eabi-gcc/4.8.3-2014q1/bin/../lib/gcc/arm-none-eabi/4.8.3/armv7-m\libgcc.a(_arm_cmpdf2.o)
__lesf2                                           c:/users/administrator/appdata/local/arduino15/packages/arduino/tools/arm-none-eabi-gcc/4.8.3-2014q1/bin/../lib/gcc/arm-none-eabi/4.8.3/armv7-m\libgcc.a(_arm_cmpsf2.o)
__libc_fini                                       c:/users/administrator/appdata/local/arduino15/packages/arduino/tools/arm-none-eabi-gcc/4.8.3-2014q1/bin/../lib/gcc/arm-none-eabi/4.8.3/../../../../arm-none-eabi/lib/armv7-m\libc.a(lib_a-__call_atexit.o)
__libc_fini_array                                 c:/users/administrator/appdata/local/arduino15/packages/arduino/tools/arm-none-eabi-gcc/4.8.3-2014q1/bin/../lib/gcc/arm-none-eabi/4.8.3/../../../../arm-none-eabi/lib/armv7-m\libc.a(lib_a-fini.o)
                                                  c:/users/administrator/appdata/local/arduino15/packages/arduino/tools/arm-none-eabi-gcc/4.8.3-2014q1/bin/../lib/gcc/arm-none-eabi/4.8.3/../../../../arm-none-eabi/lib/armv7-m\libc.a(lib_a-__call_atexit.o)
                                                  c:/users/administrator/appdata/local/arduino15/packages/arduino/tools/arm-none-eabi-gcc/4.8.3-2014q1/bin/../lib/gcc/arm-none-eabi/4.8.3/../../../../arm-none-eabi/lib/armv7-m/crt0.o
__libc_init_array                                 c:/users/administrator/appdata/local/arduino15/packages/arduino/tools/arm-none-eabi-gcc/4.8.3-2014q1/bin/../lib/gcc/arm-none-eabi/4.8.3/../../../../arm-none-eabi/lib/armv7-m\libc.a(lib_a-init.o)
                                                  C:\Users\Administrator\AppData\Local\Temp\VMBCore\arduino16x\a25b0c93d50495b56da79188cbb05a7a\variant\start_c.c.o
                                                  c:/users/administrator/appdata/local/arduino15/packages/arduino/tools/arm-none-eabi-gcc/4.8.3-2014q1/bin/../lib/gcc/arm-none-eabi/4.8.3/../../../../arm-none-eabi/lib/armv7-m/crt0.o
__lm_enable_error_usart                           C:\Users\Administrator\AppData\Local\Temp\VMBuilds\LoRa_Roll_Film\stm32_genericSTM32F103R\Release/core.a(util.c.o)
__lm_error                                        C:\Users\Administrator\AppData\Local\Temp\VMBuilds\LoRa_Roll_Film\stm32_genericSTM32F103R\Release/core.a(util.c.o)
__ltdf2                                           c:/users/administrator/appdata/local/arduino15/packages/arduino/tools/arm-none-eabi-gcc/4.8.3-2014q1/bin/../lib/gcc/arm-none-eabi/4.8.3/armv7-m\libgcc.a(_arm_cmpdf2.o)
__ltsf2                                           c:/users/administrator/appdata/local/arduino15/packages/arduino/tools/arm-none-eabi-gcc/4.8.3-2014q1/bin/../lib/gcc/arm-none-eabi/4.8.3/armv7-m\libgcc.a(_arm_cmpsf2.o)
__msp_init                                        C:\Users\Administrator\AppData\Local\Temp\VMBuilds\LoRa_Roll_Film\stm32_genericSTM32F103R\Release/core.a(vector_table.S.o)
                                                  C:\Users\Administrator\AppData\Local\Temp\VMBCore\arduino16x\a25b0c93d50495b56da79188cbb05a7a\variant\start.S.o
__muldf3                                          c:/users/administrator/appdata/local/arduino15/packages/arduino/tools/arm-none-eabi-gcc/4.8.3-2014q1/bin/../lib/gcc/arm-none-eabi/4.8.3/armv7-m\libgcc.a(_arm_muldivdf3.o)
__mulsf3                                          c:/users/administrator/appdata/local/arduino15/packages/arduino/tools/arm-none-eabi-gcc/4.8.3-2014q1/bin/../lib/gcc/arm-none-eabi/4.8.3/armv7-m\libgcc.a(_arm_muldivsf3.o)
__nedf2                                           c:/users/administrator/appdata/local/arduino15/packages/arduino/tools/arm-none-eabi-gcc/4.8.3-2014q1/bin/../lib/gcc/arm-none-eabi/4.8.3/armv7-m\libgcc.a(_arm_cmpdf2.o)
__nesf2                                           c:/users/administrator/appdata/local/arduino15/packages/arduino/tools/arm-none-eabi-gcc/4.8.3-2014q1/bin/../lib/gcc/arm-none-eabi/4.8.3/armv7-m\libgcc.a(_arm_cmpsf2.o)
__preinit_array_end                               c:/users/administrator/appdata/local/arduino15/packages/arduino/tools/arm-none-eabi-gcc/4.8.3-2014q1/bin/../lib/gcc/arm-none-eabi/4.8.3/../../../../arm-none-eabi/lib/armv7-m\libc.a(lib_a-init.o)
__preinit_array_start                             c:/users/administrator/appdata/local/arduino15/packages/arduino/tools/arm-none-eabi-gcc/4.8.3-2014q1/bin/../lib/gcc/arm-none-eabi/4.8.3/../../../../arm-none-eabi/lib/armv7-m\libc.a(lib_a-init.o)
__register_exitproc                               c:/users/administrator/appdata/local/arduino15/packages/arduino/tools/arm-none-eabi-gcc/4.8.3-2014q1/bin/../lib/gcc/arm-none-eabi/4.8.3/../../../../arm-none-eabi/lib/armv7-m\libc.a(lib_a-__atexit.o)
                                                  c:/users/administrator/appdata/local/arduino15/packages/arduino/tools/arm-none-eabi-gcc/4.8.3-2014q1/bin/../lib/gcc/arm-none-eabi/4.8.3/../../../../arm-none-eabi/lib/armv7-m\libc.a(lib_a-atexit.o)
__register_frame_info                             c:/users/administrator/appdata/local/arduino15/packages/arduino/tools/arm-none-eabi-gcc/4.8.3-2014q1/bin/../lib/gcc/arm-none-eabi/4.8.3/armv7-m/crtbegin.o
__stack                                           c:/users/administrator/appdata/local/arduino15/packages/arduino/tools/arm-none-eabi-gcc/4.8.3-2014q1/bin/../lib/gcc/arm-none-eabi/4.8.3/../../../../arm-none-eabi/lib/armv7-m/crt0.o
__start__                                         C:\Users\Administrator\AppData\Local\Temp\VMBCore\arduino16x\a25b0c93d50495b56da79188cbb05a7a\variant\start.S.o
__stm32_vector_table                              C:\Users\Administrator\AppData\Local\Temp\VMBuilds\LoRa_Roll_Film\stm32_genericSTM32F103R\Release/core.a(vector_table.S.o)
__stm32reservedexception10                        C:\Users\Administrator\AppData\Local\Temp\VMBuilds\LoRa_Roll_Film\stm32_genericSTM32F103R\Release/core.a(isrs.S.o)
                                                  C:\Users\Administrator\AppData\Local\Temp\VMBuilds\LoRa_Roll_Film\stm32_genericSTM32F103R\Release/core.a(vector_table.S.o)
__stm32reservedexception13                        C:\Users\Administrator\AppData\Local\Temp\VMBuilds\LoRa_Roll_Film\stm32_genericSTM32F103R\Release/core.a(isrs.S.o)
                                                  C:\Users\Administrator\AppData\Local\Temp\VMBuilds\LoRa_Roll_Film\stm32_genericSTM32F103R\Release/core.a(vector_table.S.o)
__stm32reservedexception7                         C:\Users\Administrator\AppData\Local\Temp\VMBuilds\LoRa_Roll_Film\stm32_genericSTM32F103R\Release/core.a(isrs.S.o)
                                                  C:\Users\Administrator\AppData\Local\Temp\VMBuilds\LoRa_Roll_Film\stm32_genericSTM32F103R\Release/core.a(vector_table.S.o)
__stm32reservedexception8                         C:\Users\Administrator\AppData\Local\Temp\VMBuilds\LoRa_Roll_Film\stm32_genericSTM32F103R\Release/core.a(isrs.S.o)
                                                  C:\Users\Administrator\AppData\Local\Temp\VMBuilds\LoRa_Roll_Film\stm32_genericSTM32F103R\Release/core.a(vector_table.S.o)
__stm32reservedexception9                         C:\Users\Administrator\AppData\Local\Temp\VMBuilds\LoRa_Roll_Film\stm32_genericSTM32F103R\Release/core.a(isrs.S.o)
                                                  C:\Users\Administrator\AppData\Local\Temp\VMBuilds\LoRa_Roll_Film\stm32_genericSTM32F103R\Release/core.a(vector_table.S.o)
__subdf3                                          c:/users/administrator/appdata/local/arduino15/packages/arduino/tools/arm-none-eabi-gcc/4.8.3-2014q1/bin/../lib/gcc/arm-none-eabi/4.8.3/armv7-m\libgcc.a(_arm_addsubdf3.o)
__subsf3                                          c:/users/administrator/appdata/local/arduino15/packages/arduino/tools/arm-none-eabi-gcc/4.8.3-2014q1/bin/../lib/gcc/arm-none-eabi/4.8.3/armv7-m\libgcc.a(_arm_addsubsf3.o)
__truncdfsf2                                      c:/users/administrator/appdata/local/arduino15/packages/arduino/tools/arm-none-eabi-gcc/4.8.3-2014q1/bin/../lib/gcc/arm-none-eabi/4.8.3/armv7-m\libgcc.a(_arm_truncdfsf2.o)
__tz_lock                                         c:/users/administrator/appdata/local/arduino15/packages/arduino/tools/arm-none-eabi-gcc/4.8.3-2014q1/bin/../lib/gcc/arm-none-eabi/4.8.3/../../../../arm-none-eabi/lib/armv7-m\libc.a(lib_a-tzlock.o)
                                                  c:/users/administrator/appdata/local/arduino15/packages/arduino/tools/arm-none-eabi-gcc/4.8.3-2014q1/bin/../lib/gcc/arm-none-eabi/4.8.3/../../../../arm-none-eabi/lib/armv7-m\libc.a(lib_a-mktm_r.o)
                                                  c:/users/administrator/appdata/local/arduino15/packages/arduino/tools/arm-none-eabi-gcc/4.8.3-2014q1/bin/../lib/gcc/arm-none-eabi/4.8.3/../../../../arm-none-eabi/lib/armv7-m\libc.a(lib_a-mktime.o)
__tz_unlock                                       c:/users/administrator/appdata/local/arduino15/packages/arduino/tools/arm-none-eabi-gcc/4.8.3-2014q1/bin/../lib/gcc/arm-none-eabi/4.8.3/../../../../arm-none-eabi/lib/armv7-m\libc.a(lib_a-tzlock.o)
                                                  c:/users/administrator/appdata/local/arduino15/packages/arduino/tools/arm-none-eabi-gcc/4.8.3-2014q1/bin/../lib/gcc/arm-none-eabi/4.8.3/../../../../arm-none-eabi/lib/armv7-m\libc.a(lib_a-mktm_r.o)
                                                  c:/users/administrator/appdata/local/arduino15/packages/arduino/tools/arm-none-eabi-gcc/4.8.3-2014q1/bin/../lib/gcc/arm-none-eabi/4.8.3/../../../../arm-none-eabi/lib/armv7-m\libc.a(lib_a-mktime.o)
__tzcalc_limits                                   c:/users/administrator/appdata/local/arduino15/packages/arduino/tools/arm-none-eabi-gcc/4.8.3-2014q1/bin/../lib/gcc/arm-none-eabi/4.8.3/../../../../arm-none-eabi/lib/armv7-m\libc.a(lib_a-mktm_r.o)
                                                  c:/users/administrator/appdata/local/arduino15/packages/arduino/tools/arm-none-eabi-gcc/4.8.3-2014q1/bin/../lib/gcc/arm-none-eabi/4.8.3/../../../../arm-none-eabi/lib/armv7-m\libc.a(lib_a-mktime.o)
__udivdi3                                         c:/users/administrator/appdata/local/arduino15/packages/arduino/tools/arm-none-eabi-gcc/4.8.3-2014q1/bin/../lib/gcc/arm-none-eabi/4.8.3/armv7-m\libgcc.a(_udivdi3.o)
                                                  c:/users/administrator/appdata/local/arduino15/packages/arduino/tools/arm-none-eabi-gcc/4.8.3-2014q1/bin/../lib/gcc/arm-none-eabi/4.8.3/armv7-m\libgcc.a(bpabi.o)
_close                                            C:\Users\Administrator\AppData\Local\Temp\VMBCore\arduino16x\a25b0c93d50495b56da79188cbb05a7a\variant\syscalls.c.o
_daylight                                         c:/users/administrator/appdata/local/arduino15/packages/arduino/tools/arm-none-eabi-gcc/4.8.3-2014q1/bin/../lib/gcc/arm-none-eabi/4.8.3/../../../../arm-none-eabi/lib/armv7-m\libc.a(lib_a-tzvars.o)
                                                  c:/users/administrator/appdata/local/arduino15/packages/arduino/tools/arm-none-eabi-gcc/4.8.3-2014q1/bin/../lib/gcc/arm-none-eabi/4.8.3/../../../../arm-none-eabi/lib/armv7-m\libc.a(lib_a-mktm_r.o)
                                                  c:/users/administrator/appdata/local/arduino15/packages/arduino/tools/arm-none-eabi-gcc/4.8.3-2014q1/bin/../lib/gcc/arm-none-eabi/4.8.3/../../../../arm-none-eabi/lib/armv7-m\libc.a(lib_a-mktime.o)
_exit                                             C:\Users\Administrator\AppData\Local\Temp\VMBCore\arduino16x\a25b0c93d50495b56da79188cbb05a7a\variant\syscalls.c.o
                                                  c:/users/administrator/appdata/local/arduino15/packages/arduino/tools/arm-none-eabi-gcc/4.8.3-2014q1/bin/../lib/gcc/arm-none-eabi/4.8.3/../../../../arm-none-eabi/lib/armv7-m\libc.a(lib_a-exit.o)
_fail                                             C:\Users\Administrator\AppData\Local\Temp\VMBuilds\LoRa_Roll_Film\stm32_genericSTM32F103R\Release/core.a(util.c.o)
                                                  C:\Users\Administrator\AppData\Local\Temp\VMBuilds\LoRa_Roll_Film\stm32_genericSTM32F103R\Release/core.a(timer.c.o)
                                                  C:\Users\Administrator\AppData\Local\Temp\VMBuilds\LoRa_Roll_Film\stm32_genericSTM32F103R\Release/core.a(rcc_f1.c.o)
_fini                                             c:/users/administrator/appdata/local/arduino15/packages/arduino/tools/arm-none-eabi-gcc/4.8.3-2014q1/bin/../lib/gcc/arm-none-eabi/4.8.3/armv7-m/crti.o
                                                  c:/users/administrator/appdata/local/arduino15/packages/arduino/tools/arm-none-eabi-gcc/4.8.3-2014q1/bin/../lib/gcc/arm-none-eabi/4.8.3/../../../../arm-none-eabi/lib/armv7-m\libc.a(lib_a-fini.o)
_fstat                                            C:\Users\Administrator\AppData\Local\Temp\VMBCore\arduino16x\a25b0c93d50495b56da79188cbb05a7a\variant\syscalls.c.o
_global_impure_ptr                                c:/users/administrator/appdata/local/arduino15/packages/arduino/tools/arm-none-eabi-gcc/4.8.3-2014q1/bin/../lib/gcc/arm-none-eabi/4.8.3/../../../../arm-none-eabi/lib/armv7-m\libc.a(lib_a-impure.o)
                                                  c:/users/administrator/appdata/local/arduino15/packages/arduino/tools/arm-none-eabi-gcc/4.8.3-2014q1/bin/../lib/gcc/arm-none-eabi/4.8.3/../../../../arm-none-eabi/lib/armv7-m\libc.a(lib_a-__atexit.o)
                                                  c:/users/administrator/appdata/local/arduino15/packages/arduino/tools/arm-none-eabi-gcc/4.8.3-2014q1/bin/../lib/gcc/arm-none-eabi/4.8.3/../../../../arm-none-eabi/lib/armv7-m\libc.a(lib_a-__call_atexit.o)
                                                  c:/users/administrator/appdata/local/arduino15/packages/arduino/tools/arm-none-eabi-gcc/4.8.3-2014q1/bin/../lib/gcc/arm-none-eabi/4.8.3/../../../../arm-none-eabi/lib/armv7-m\libc.a(lib_a-exit.o)
_impure_ptr                                       c:/users/administrator/appdata/local/arduino15/packages/arduino/tools/arm-none-eabi-gcc/4.8.3-2014q1/bin/../lib/gcc/arm-none-eabi/4.8.3/../../../../arm-none-eabi/lib/armv7-m\libc.a(lib_a-impure.o)
                                                  c:/users/administrator/appdata/local/arduino15/packages/arduino/tools/arm-none-eabi-gcc/4.8.3-2014q1/bin/../lib/gcc/arm-none-eabi/4.8.3/../../../../arm-none-eabi/lib/armv7-m\libc.a(lib_a-rand.o)
                                                  c:/users/administrator/appdata/local/arduino15/packages/arduino/tools/arm-none-eabi-gcc/4.8.3-2014q1/bin/../lib/gcc/arm-none-eabi/4.8.3/../../../../arm-none-eabi/lib/armv7-m\libc.a(lib_a-gmtime.o)
                                                  c:/users/administrator/appdata/local/arduino15/packages/arduino/tools/arm-none-eabi-gcc/4.8.3-2014q1/bin/../lib/gcc/arm-none-eabi/4.8.3/../../../../arm-none-eabi/lib/armv7-m\libc.a(lib_a-errno.o)
_init                                             c:/users/administrator/appdata/local/arduino15/packages/arduino/tools/arm-none-eabi-gcc/4.8.3-2014q1/bin/../lib/gcc/arm-none-eabi/4.8.3/armv7-m/crti.o
                                                  c:/users/administrator/appdata/local/arduino15/packages/arduino/tools/arm-none-eabi-gcc/4.8.3-2014q1/bin/../lib/gcc/arm-none-eabi/4.8.3/../../../../arm-none-eabi/lib/armv7-m\libc.a(lib_a-init.o)
_isatty                                           C:\Users\Administrator\AppData\Local\Temp\VMBCore\arduino16x\a25b0c93d50495b56da79188cbb05a7a\variant\syscalls.c.o
_lm_heap_end                                      C:\Users\Administrator\AppData\Local\Temp\VMBCore\arduino16x\a25b0c93d50495b56da79188cbb05a7a\variant\syscalls.c.o
_lm_heap_start                                    C:\Users\Administrator\AppData\Local\Temp\VMBCore\arduino16x\a25b0c93d50495b56da79188cbb05a7a\variant\syscalls.c.o
_lm_rom_img_cfgp                                  C:\Users\Administrator\AppData\Local\Temp\VMBCore\arduino16x\a25b0c93d50495b56da79188cbb05a7a\variant\start_c.c.o
_lseek                                            C:\Users\Administrator\AppData\Local\Temp\VMBCore\arduino16x\a25b0c93d50495b56da79188cbb05a7a\variant\syscalls.c.o
_mainCRTStartup                                   c:/users/administrator/appdata/local/arduino15/packages/arduino/tools/arm-none-eabi-gcc/4.8.3-2014q1/bin/../lib/gcc/arm-none-eabi/4.8.3/../../../../arm-none-eabi/lib/armv7-m/crt0.o
_mktm_r                                           c:/users/administrator/appdata/local/arduino15/packages/arduino/tools/arm-none-eabi-gcc/4.8.3-2014q1/bin/../lib/gcc/arm-none-eabi/4.8.3/../../../../arm-none-eabi/lib/armv7-m\libc.a(lib_a-mktm_r.o)
                                                  c:/users/administrator/appdata/local/arduino15/packages/arduino/tools/arm-none-eabi-gcc/4.8.3-2014q1/bin/../lib/gcc/arm-none-eabi/4.8.3/../../../../arm-none-eabi/lib/armv7-m\libc.a(lib_a-gmtime_r.o)
_open                                             C:\Users\Administrator\AppData\Local\Temp\VMBCore\arduino16x\a25b0c93d50495b56da79188cbb05a7a\variant\syscalls.c.o
_read                                             C:\Users\Administrator\AppData\Local\Temp\VMBCore\arduino16x\a25b0c93d50495b56da79188cbb05a7a\variant\syscalls.c.o
_sbrk                                             C:\Users\Administrator\AppData\Local\Temp\VMBCore\arduino16x\a25b0c93d50495b56da79188cbb05a7a\variant\syscalls.c.o
_start                                            c:/users/administrator/appdata/local/arduino15/packages/arduino/tools/arm-none-eabi-gcc/4.8.3-2014q1/bin/../lib/gcc/arm-none-eabi/4.8.3/../../../../arm-none-eabi/lib/armv7-m/crt0.o
_timezone                                         c:/users/administrator/appdata/local/arduino15/packages/arduino/tools/arm-none-eabi-gcc/4.8.3-2014q1/bin/../lib/gcc/arm-none-eabi/4.8.3/../../../../arm-none-eabi/lib/armv7-m\libc.a(lib_a-tzvars.o)
_tzname                                           c:/users/administrator/appdata/local/arduino15/packages/arduino/tools/arm-none-eabi-gcc/4.8.3-2014q1/bin/../lib/gcc/arm-none-eabi/4.8.3/../../../../arm-none-eabi/lib/armv7-m\libc.a(lib_a-tzvars.o)
_usart_clock_freq                                 C:\Users\Administrator\AppData\Local\Temp\VMBuilds\LoRa_Roll_Film\stm32_genericSTM32F103R\Release/core.a(usart_private.c.o)
                                                  C:\Users\Administrator\AppData\Local\Temp\VMBuilds\LoRa_Roll_Film\stm32_genericSTM32F103R\Release/core.a(usart_f1.c.o)
_write                                            C:\Users\Administrator\AppData\Local\Temp\VMBCore\arduino16x\a25b0c93d50495b56da79188cbb05a7a\variant\syscalls.c.o
abort                                             C:\Users\Administrator\AppData\Local\Temp\VMBuilds\LoRa_Roll_Film\stm32_genericSTM32F103R\Release/core.a(util.c.o)
adc1                                              C:\Users\Administrator\AppData\Local\Temp\VMBuilds\LoRa_Roll_Film\stm32_genericSTM32F103R\Release/core.a(adc_f1.c.o)
                                                  C:\Users\Administrator\AppData\Local\Temp\VMBCore\arduino16x\a25b0c93d50495b56da79188cbb05a7a\variant\board.cpp.o
adc2                                              C:\Users\Administrator\AppData\Local\Temp\VMBuilds\LoRa_Roll_Film\stm32_genericSTM32F103R\Release/core.a(adc_f1.c.o)
adc3                                              C:\Users\Administrator\AppData\Local\Temp\VMBuilds\LoRa_Roll_Film\stm32_genericSTM32F103R\Release/core.a(adc_f1.c.o)
adc_attach_interrupt                              C:\Users\Administrator\AppData\Local\Temp\VMBuilds\LoRa_Roll_Film\stm32_genericSTM32F103R\Release/core.a(adc_f1.c.o)
adc_calibrate                                     C:\Users\Administrator\AppData\Local\Temp\VMBuilds\LoRa_Roll_Film\stm32_genericSTM32F103R\Release/core.a(adc_f1.c.o)
adc_config_gpio                                   C:\Users\Administrator\AppData\Local\Temp\VMBuilds\LoRa_Roll_Film\stm32_genericSTM32F103R\Release/core.a(adc_f1.c.o)
adc_enable_irq                                    C:\Users\Administrator\AppData\Local\Temp\VMBuilds\LoRa_Roll_Film\stm32_genericSTM32F103R\Release/core.a(adc_f1.c.o)
adc_enable_single_swstart                         C:\Users\Administrator\AppData\Local\Temp\VMBuilds\LoRa_Roll_Film\stm32_genericSTM32F103R\Release/core.a(adc_f1.c.o)
                                                  C:\Users\Administrator\AppData\Local\Temp\VMBCore\arduino16x\a25b0c93d50495b56da79188cbb05a7a\variant\boards.cpp.o
adc_foreach                                       C:\Users\Administrator\AppData\Local\Temp\VMBuilds\LoRa_Roll_Film\stm32_genericSTM32F103R\Release/core.a(adc_f1.c.o)
                                                  C:\Users\Administrator\AppData\Local\Temp\VMBCore\arduino16x\a25b0c93d50495b56da79188cbb05a7a\variant\boards.cpp.o
adc_init                                          C:\Users\Administrator\AppData\Local\Temp\VMBuilds\LoRa_Roll_Film\stm32_genericSTM32F103R\Release/core.a(adc.c.o)
                                                  C:\Users\Administrator\AppData\Local\Temp\VMBuilds\LoRa_Roll_Film\stm32_genericSTM32F103R\Release/core.a(adc_f1.c.o)
adc_read                                          C:\Users\Administrator\AppData\Local\Temp\VMBuilds\LoRa_Roll_Film\stm32_genericSTM32F103R\Release/core.a(adc.c.o)
                                                  C:\Users\Administrator\AppData\Local\Temp\VMBuilds\LoRa_Roll_Film\stm32_genericSTM32F103R\Release/core.a(wirish_analog.cpp.o)
adc_set_extsel                                    C:\Users\Administrator\AppData\Local\Temp\VMBuilds\LoRa_Roll_Film\stm32_genericSTM32F103R\Release/core.a(adc.c.o)
                                                  C:\Users\Administrator\AppData\Local\Temp\VMBuilds\LoRa_Roll_Film\stm32_genericSTM32F103R\Release/core.a(adc_f1.c.o)
adc_set_prescaler                                 C:\Users\Administrator\AppData\Local\Temp\VMBuilds\LoRa_Roll_Film\stm32_genericSTM32F103R\Release/core.a(adc_f1.c.o)
                                                  C:\Users\Administrator\AppData\Local\Temp\VMBCore\arduino16x\a25b0c93d50495b56da79188cbb05a7a\variant\boards.cpp.o
adc_set_sample_rate                               C:\Users\Administrator\AppData\Local\Temp\VMBuilds\LoRa_Roll_Film\stm32_genericSTM32F103R\Release/core.a(adc.c.o)
                                                  C:\Users\Administrator\AppData\Local\Temp\VMBCore\arduino16x\a25b0c93d50495b56da79188cbb05a7a\variant\boards.cpp.o
afio_init                                         C:\Users\Administrator\AppData\Local\Temp\VMBuilds\LoRa_Roll_Film\stm32_genericSTM32F103R\Release/core.a(gpio_f1.c.o)
                                                  C:\Users\Administrator\AppData\Local\Temp\VMBCore\arduino16x\a25b0c93d50495b56da79188cbb05a7a\variant\boards_setup.cpp.o
afio_remap                                        C:\Users\Administrator\AppData\Local\Temp\VMBuilds\LoRa_Roll_Film\stm32_genericSTM32F103R\Release/core.a(gpio_f1.c.o)
analogRead(unsigned char)                         C:\Users\Administrator\AppData\Local\Temp\VMBuilds\LoRa_Roll_Film\stm32_genericSTM32F103R\Release/core.a(wirish_analog.cpp.o)
                                                  Motor.cpp.o
atexit                                            c:/users/administrator/appdata/local/arduino15/packages/arduino/tools/arm-none-eabi-gcc/4.8.3-2014q1/bin/../lib/gcc/arm-none-eabi/4.8.3/../../../../arm-none-eabi/lib/armv7-m\libc.a(lib_a-atexit.o)
                                                  c:/users/administrator/appdata/local/arduino15/packages/arduino/tools/arm-none-eabi-gcc/4.8.3-2014q1/bin/../lib/gcc/arm-none-eabi/4.8.3/../../../../arm-none-eabi/lib/armv7-m\libc.a(lib_a-__call_atexit.o)
                                                  c:/users/administrator/appdata/local/arduino15/packages/arduino/tools/arm-none-eabi-gcc/4.8.3-2014q1/bin/../lib/gcc/arm-none-eabi/4.8.3/../../../../arm-none-eabi/lib/armv7-m/crt0.o
attachInterrupt(unsigned char, void (*)(), ExtIntTriggerMode) C:\Users\Administrator\AppData\Local\Temp\VMBuilds\LoRa_Roll_Film\stm32_genericSTM32F103R\Release/core.a(ext_interrupts.cpp.o)
                                                  Motor.cpp.o
                                                  Command_Analysis.cpp.o
                                                  LoRa_Roll_Film.cpp.o
attachInterrupt(unsigned char, void (*)(void*), void*, ExtIntTriggerMode) C:\Users\Administrator\AppData\Local\Temp\VMBuilds\LoRa_Roll_Film\stm32_genericSTM32F103R\Release/core.a(ext_interrupts.cpp.o)
bkp                                               C:\Users\Administrator\AppData\Local\Temp\VMBuilds\LoRa_Roll_Film\stm32_genericSTM32F103R\Release/core.a(bkp_f1.c.o)
bkp_disable_writes                                C:\Users\Administrator\AppData\Local\Temp\VMBuilds\LoRa_Roll_Film\stm32_genericSTM32F103R\Release/core.a(bkp_f1.c.o)
                                                  Private_RTC.cpp.o
                                                  Memory.cpp.o
bkp_enable_writes                                 C:\Users\Administrator\AppData\Local\Temp\VMBuilds\LoRa_Roll_Film\stm32_genericSTM32F103R\Release/core.a(bkp_f1.c.o)
                                                  RTClock\utility\rtc_util.c.o
                                                  Private_RTC.cpp.o
                                                  Memory.cpp.o
bkp_init                                          C:\Users\Administrator\AppData\Local\Temp\VMBuilds\LoRa_Roll_Film\stm32_genericSTM32F103R\Release/core.a(bkp_f1.c.o)
                                                  RTClock\utility\rtc_util.c.o
                                                  LoRa_Roll_Film.cpp.o
bkp_read                                          C:\Users\Administrator\AppData\Local\Temp\VMBuilds\LoRa_Roll_Film\stm32_genericSTM32F103R\Release/core.a(bkp_f1.c.o)
                                                  Memory.cpp.o
bkp_write                                         C:\Users\Administrator\AppData\Local\Temp\VMBuilds\LoRa_Roll_Film\stm32_genericSTM32F103R\Release/core.a(bkp_f1.c.o)
                                                  Memory.cpp.o
boardADCPins                                      C:\Users\Administrator\AppData\Local\Temp\VMBCore\arduino16x\a25b0c93d50495b56da79188cbb05a7a\variant\board.cpp.o
boardInit()                                       C:\Users\Administrator\AppData\Local\Temp\VMBCore\arduino16x\a25b0c93d50495b56da79188cbb05a7a\variant\boards.cpp.o
boardPWMPins                                      C:\Users\Administrator\AppData\Local\Temp\VMBCore\arduino16x\a25b0c93d50495b56da79188cbb05a7a\variant\board.cpp.o
boardUsedPins                                     C:\Users\Administrator\AppData\Local\Temp\VMBCore\arduino16x\a25b0c93d50495b56da79188cbb05a7a\variant\board.cpp.o
                                                  C:\Users\Administrator\AppData\Local\Temp\VMBCore\arduino16x\a25b0c93d50495b56da79188cbb05a7a\variant\boards.cpp.o
boardUsesPin(unsigned char)                       C:\Users\Administrator\AppData\Local\Temp\VMBCore\arduino16x\a25b0c93d50495b56da79188cbb05a7a\variant\boards.cpp.o
cgets                                             C:\Users\Administrator\AppData\Local\Temp\VMBCore\arduino16x\a25b0c93d50495b56da79188cbb05a7a\variant\syscalls.c.o
copysign                                          c:/users/administrator/appdata/local/arduino15/packages/arduino/tools/arm-none-eabi-gcc/4.8.3-2014q1/bin/../lib/gcc/arm-none-eabi/4.8.3/../../../../arm-none-eabi/lib/armv7-m\libm.a(lib_a-s_copysign.o)
                                                  c:/users/administrator/appdata/local/arduino15/packages/arduino/tools/arm-none-eabi-gcc/4.8.3-2014q1/bin/../lib/gcc/arm-none-eabi/4.8.3/../../../../arm-none-eabi/lib/armv7-m\libm.a(lib_a-s_scalbn.o)
date::Get_RTC(unsigned char*)                     Private_RTC.cpp.o
date::Update_RTC(unsigned char*)                  Private_RTC.cpp.o
delay(unsigned long)                              C:\Users\Administrator\AppData\Local\Temp\VMBuilds\LoRa_Roll_Film\stm32_genericSTM32F103R\Release/core.a(wirish_time.cpp.o)
                                                  Security.cpp.o
                                                  receipt.cpp.o
                                                  Memory.cpp.o
                                                  LoRa.cpp.o
                                                  Command_Analysis.cpp.o
                                                  AT24CXX.cpp.o
                                                  LoRa_Roll_Film.cpp.o
delayMicroseconds(unsigned long)                  C:\Users\Administrator\AppData\Local\Temp\VMBuilds\LoRa_Roll_Film\stm32_genericSTM32F103R\Release/core.a(wirish_time.cpp.o)
                                                  receipt.cpp.o
                                                  Motor.cpp.o
                                                  i2c.cpp.o
                                                  fun_periph.cpp.o
detachInterrupt(unsigned char)                    C:\Users\Administrator\AppData\Local\Temp\VMBuilds\LoRa_Roll_Film\stm32_genericSTM32F103R\Release/core.a(ext_interrupts.cpp.o)
                                                  Motor.cpp.o
                                                  Command_Analysis.cpp.o
                                                  LoRa_Roll_Film.cpp.o
digitalRead(unsigned char)                        C:\Users\Administrator\AppData\Local\Temp\VMBuilds\LoRa_Roll_Film\stm32_genericSTM32F103R\Release/core.a(wirish_digital.cpp.o)
                                                  Motor.cpp.o
                                                  Memory.cpp.o
                                                  i2c.cpp.o
                                                  Command_Analysis.cpp.o
                                                  LoRa_Roll_Film.cpp.o
digitalWrite(unsigned char, unsigned char)        C:\Users\Administrator\AppData\Local\Temp\VMBuilds\LoRa_Roll_Film\stm32_genericSTM32F103R\Release/core.a(wirish_digital.cpp.o)
                                                  Motor.cpp.o
                                                  Memory.cpp.o
                                                  LoRa.cpp.o
                                                  i2c.cpp.o
                                                  fun_periph.cpp.o
                                                  Command_Analysis.cpp.o
                                                  LoRa_Roll_Film.cpp.o
div                                               c:/users/administrator/appdata/local/arduino15/packages/arduino/tools/arm-none-eabi-gcc/4.8.3-2014q1/bin/../lib/gcc/arm-none-eabi/4.8.3/../../../../arm-none-eabi/lib/armv7-m\libc.a(lib_a-div.o)
                                                  c:/users/administrator/appdata/local/arduino15/packages/arduino/tools/arm-none-eabi-gcc/4.8.3-2014q1/bin/../lib/gcc/arm-none-eabi/4.8.3/../../../../arm-none-eabi/lib/armv7-m\libc.a(lib_a-mktime.o)
exit                                              c:/users/administrator/appdata/local/arduino15/packages/arduino/tools/arm-none-eabi-gcc/4.8.3-2014q1/bin/../lib/gcc/arm-none-eabi/4.8.3/../../../../arm-none-eabi/lib/armv7-m\libc.a(lib_a-exit.o)
                                                  C:\Users\Administrator\AppData\Local\Temp\VMBCore\arduino16x\a25b0c93d50495b56da79188cbb05a7a\variant\start_c.c.o
                                                  c:/users/administrator/appdata/local/arduino15/packages/arduino/tools/arm-none-eabi-gcc/4.8.3-2014q1/bin/../lib/gcc/arm-none-eabi/4.8.3/../../../../arm-none-eabi/lib/armv7-m/crt0.o
exti_attach_callback                              C:\Users\Administrator\AppData\Local\Temp\VMBuilds\LoRa_Roll_Film\stm32_genericSTM32F103R\Release/core.a(exti.c.o)
                                                  C:\Users\Administrator\AppData\Local\Temp\VMBuilds\LoRa_Roll_Film\stm32_genericSTM32F103R\Release/core.a(ext_interrupts.cpp.o)
exti_attach_interrupt                             C:\Users\Administrator\AppData\Local\Temp\VMBuilds\LoRa_Roll_Film\stm32_genericSTM32F103R\Release/core.a(exti.c.o)
                                                  C:\Users\Administrator\AppData\Local\Temp\VMBuilds\LoRa_Roll_Film\stm32_genericSTM32F103R\Release/core.a(ext_interrupts.cpp.o)
exti_detach_interrupt                             C:\Users\Administrator\AppData\Local\Temp\VMBuilds\LoRa_Roll_Film\stm32_genericSTM32F103R\Release/core.a(exti.c.o)
                                                  C:\Users\Administrator\AppData\Local\Temp\VMBuilds\LoRa_Roll_Film\stm32_genericSTM32F103R\Release/core.a(ext_interrupts.cpp.o)
exti_do_select                                    C:\Users\Administrator\AppData\Local\Temp\VMBuilds\LoRa_Roll_Film\stm32_genericSTM32F103R\Release/core.a(exti.c.o)
                                                  C:\Users\Administrator\AppData\Local\Temp\VMBuilds\LoRa_Roll_Film\stm32_genericSTM32F103R\Release/core.a(exti_f1.c.o)
exti_select                                       C:\Users\Administrator\AppData\Local\Temp\VMBuilds\LoRa_Roll_Film\stm32_genericSTM32F103R\Release/core.a(exti_f1.c.o)
                                                  C:\Users\Administrator\AppData\Local\Temp\VMBuilds\LoRa_Roll_Film\stm32_genericSTM32F103R\Release/core.a(exti.c.o)
fabs                                              c:/users/administrator/appdata/local/arduino15/packages/arduino/tools/arm-none-eabi-gcc/4.8.3-2014q1/bin/../lib/gcc/arm-none-eabi/4.8.3/../../../../arm-none-eabi/lib/armv7-m\libm.a(lib_a-s_fabs.o)
                                                  c:/users/administrator/appdata/local/arduino15/packages/arduino/tools/arm-none-eabi-gcc/4.8.3-2014q1/bin/../lib/gcc/arm-none-eabi/4.8.3/../../../../arm-none-eabi/lib/armv7-m\libm.a(lib_a-e_pow.o)
fgets                                             C:\Users\Administrator\AppData\Local\Temp\VMBCore\arduino16x\a25b0c93d50495b56da79188cbb05a7a\variant\syscalls.c.o
finite                                            c:/users/administrator/appdata/local/arduino15/packages/arduino/tools/arm-none-eabi-gcc/4.8.3-2014q1/bin/../lib/gcc/arm-none-eabi/4.8.3/../../../../arm-none-eabi/lib/armv7-m\libm.a(lib_a-s_finite.o)
                                                  c:/users/administrator/appdata/local/arduino15/packages/arduino/tools/arm-none-eabi-gcc/4.8.3-2014q1/bin/../lib/gcc/arm-none-eabi/4.8.3/../../../../arm-none-eabi/lib/armv7-m\libm.a(lib_a-w_pow.o)
flash_set_latency                                 C:\Users\Administrator\AppData\Local\Temp\VMBuilds\LoRa_Roll_Film\stm32_genericSTM32F103R\Release/core.a(flash.c.o)
                                                  C:\Users\Administrator\AppData\Local\Temp\VMBCore\arduino16x\a25b0c93d50495b56da79188cbb05a7a\variant\boards.cpp.o
free                                              c:/users/administrator/appdata/local/arduino15/packages/arduino/tools/arm-none-eabi-gcc/4.8.3-2014q1/bin/../lib/gcc/arm-none-eabi/4.8.3/../../../../arm-none-eabi/lib/armv7-m\libc.a(lib_a-__call_atexit.o)
gAccessNetworkFlag                                Command_Analysis.cpp.o
                                                  LoRa_Roll_Film.cpp.o
gAdjustOpeningFlag                                Motor.cpp.o
                                                  Command_Analysis.cpp.o
gCheckStoreParamFlag                              Security.cpp.o
                                                  Private_Timer.cpp.o
gCurrentOpening                                   Motor.cpp.o
gCurrentOverNum                                   Motor.cpp.o
gDetectMotorLimitFlag                             Motor.cpp.o
gDetectMotorOverTimeFlag                          Motor.cpp.o
gForceRollWorkingFlag                             Motor.cpp.o
                                                  Command_Analysis.cpp.o
gIsHandleMsgFlag                                  Command_Analysis.cpp.o
                                                  LoRa_Roll_Film.cpp.o
gIsTraceUpOpeningFlag                             Motor.cpp.o
gLastOpening                                      Motor.cpp.o
gLoRaCSQ                                          receipt.cpp.o
gLowCurrentTime                                   Motor.cpp.o
gManualDownDetectFlag                             Motor.cpp.o
                                                  Command_Analysis.cpp.o
gManualKeyExceptionFlag                           Motor.cpp.o
                                                  Command_Analysis.cpp.o
gManualLowCurrentNum                              Motor.cpp.o
gManualUpDetectFlag                               Motor.cpp.o
                                                  Command_Analysis.cpp.o
gMassCommandFlag                                  Command_Analysis.cpp.o
                                                  receipt.cpp.o
gMotorStatus                                      receipt.cpp.o
                                                  Motor.cpp.o
                                                  Command_Analysis.cpp.o
                                                  LoRa_Roll_Film.cpp.o
gNeedResetRollFlag                                Motor.cpp.o
gOpeningWorkingFlag                               Motor.cpp.o
                                                  Command_Analysis.cpp.o
gReceiveCmd                                       Command_Analysis.cpp.o
gReceiveLength                                    Command_Analysis.cpp.o
gResetRollWorkingFlag                             Motor.cpp.o
                                                  Command_Analysis.cpp.o
gRollingTime                                      Motor.cpp.o
                                                  Private_Timer.cpp.o
gRollingTimeVarFlag                               Motor.cpp.o
                                                  Private_Timer.cpp.o
gSN_Code                                          LoRa_Roll_Film.cpp.o
gStartTraceOpeningFlag                            Motor.cpp.o
gStopWorkFlag                                     Command_Analysis.cpp.o
                                                  Motor.cpp.o
gTraceOpeningOKFlag                               Motor.cpp.o
gVerifyRollOK_LowCurrentTime                      Motor.cpp.o
gVerifyTraceOpeningNum                            Motor.cpp.o
get_direction                                     C:\Users\Administrator\AppData\Local\Temp\VMBuilds\LoRa_Roll_Film\stm32_genericSTM32F103R\Release/core.a(timer.c.o)
                                                  C:\Users\Administrator\AppData\Local\Temp\VMBuilds\LoRa_Roll_Film\stm32_genericSTM32F103R\Release/core.a(HardwareTimer.cpp.o)
getch                                             C:\Users\Administrator\AppData\Local\Temp\VMBCore\arduino16x\a25b0c93d50495b56da79188cbb05a7a\variant\syscalls.c.o
gmtime                                            c:/users/administrator/appdata/local/arduino15/packages/arduino/tools/arm-none-eabi-gcc/4.8.3-2014q1/bin/../lib/gcc/arm-none-eabi/4.8.3/../../../../arm-none-eabi/lib/armv7-m\libc.a(lib_a-gmtime.o)
                                                  RTClock\RTClock.cpp.o
gmtime_r                                          c:/users/administrator/appdata/local/arduino15/packages/arduino/tools/arm-none-eabi-gcc/4.8.3-2014q1/bin/../lib/gcc/arm-none-eabi/4.8.3/../../../../arm-none-eabi/lib/armv7-m\libc.a(lib_a-gmtime_r.o)
                                                  c:/users/administrator/appdata/local/arduino15/packages/arduino/tools/arm-none-eabi-gcc/4.8.3-2014q1/bin/../lib/gcc/arm-none-eabi/4.8.3/../../../../arm-none-eabi/lib/armv7-m\libc.a(lib_a-gmtime.o)
gpio_get_mode                                     C:\Users\Administrator\AppData\Local\Temp\VMBuilds\LoRa_Roll_Film\stm32_genericSTM32F103R\Release/core.a(gpio_f1.c.o)
gpio_init                                         C:\Users\Administrator\AppData\Local\Temp\VMBuilds\LoRa_Roll_Film\stm32_genericSTM32F103R\Release/core.a(gpio.c.o)
                                                  C:\Users\Administrator\AppData\Local\Temp\VMBuilds\LoRa_Roll_Film\stm32_genericSTM32F103R\Release/core.a(gpio_f1.c.o)
gpio_init_all                                     C:\Users\Administrator\AppData\Local\Temp\VMBuilds\LoRa_Roll_Film\stm32_genericSTM32F103R\Release/core.a(gpio_f1.c.o)
                                                  C:\Users\Administrator\AppData\Local\Temp\VMBCore\arduino16x\a25b0c93d50495b56da79188cbb05a7a\variant\boards_setup.cpp.o
gpio_set_mode                                     C:\Users\Administrator\AppData\Local\Temp\VMBuilds\LoRa_Roll_Film\stm32_genericSTM32F103R\Release/core.a(gpio_f1.c.o)
                                                  C:\Users\Administrator\AppData\Local\Temp\VMBuilds\LoRa_Roll_Film\stm32_genericSTM32F103R\Release/core.a(wirish_digital_f1.cpp.o)
                                                  C:\Users\Administrator\AppData\Local\Temp\VMBuilds\LoRa_Roll_Film\stm32_genericSTM32F103R\Release/core.a(util.c.o)
                                                  C:\Users\Administrator\AppData\Local\Temp\VMBuilds\LoRa_Roll_Film\stm32_genericSTM32F103R\Release/core.a(usart_f1.c.o)
                                                  C:\Users\Administrator\AppData\Local\Temp\VMBuilds\LoRa_Roll_Film\stm32_genericSTM32F103R\Release/core.a(adc_f1.c.o)
gpioa                                             C:\Users\Administrator\AppData\Local\Temp\VMBuilds\LoRa_Roll_Film\stm32_genericSTM32F103R\Release/core.a(gpio_f1.c.o)
                                                  C:\Users\Administrator\AppData\Local\Temp\VMBCore\arduino16x\a25b0c93d50495b56da79188cbb05a7a\variant\board.cpp.o
gpiob                                             C:\Users\Administrator\AppData\Local\Temp\VMBuilds\LoRa_Roll_Film\stm32_genericSTM32F103R\Release/core.a(gpio_f1.c.o)
                                                  C:\Users\Administrator\AppData\Local\Temp\VMBCore\arduino16x\a25b0c93d50495b56da79188cbb05a7a\variant\board.cpp.o
gpioc                                             C:\Users\Administrator\AppData\Local\Temp\VMBuilds\LoRa_Roll_Film\stm32_genericSTM32F103R\Release/core.a(gpio_f1.c.o)
                                                  C:\Users\Administrator\AppData\Local\Temp\VMBCore\arduino16x\a25b0c93d50495b56da79188cbb05a7a\variant\board.cpp.o
gpiod                                             C:\Users\Administrator\AppData\Local\Temp\VMBuilds\LoRa_Roll_Film\stm32_genericSTM32F103R\Release/core.a(gpio_f1.c.o)
                                                  C:\Users\Administrator\AppData\Local\Temp\VMBCore\arduino16x\a25b0c93d50495b56da79188cbb05a7a\variant\board.cpp.o
gpioe                                             C:\Users\Administrator\AppData\Local\Temp\VMBuilds\LoRa_Roll_Film\stm32_genericSTM32F103R\Release/core.a(gpio_f1.c.o)
gpiof                                             C:\Users\Administrator\AppData\Local\Temp\VMBuilds\LoRa_Roll_Film\stm32_genericSTM32F103R\Release/core.a(gpio_f1.c.o)
gpiog                                             C:\Users\Administrator\AppData\Local\Temp\VMBuilds\LoRa_Roll_Film\stm32_genericSTM32F103R\Release/core.a(gpio_f1.c.o)
hardware_init_hook                                c:/users/administrator/appdata/local/arduino15/packages/arduino/tools/arm-none-eabi-gcc/4.8.3-2014q1/bin/../lib/gcc/arm-none-eabi/4.8.3/../../../../arm-none-eabi/lib/armv7-m/crt0.o
init()                                            C:\Users\Administrator\AppData\Local\Temp\VMBCore\arduino16x\a25b0c93d50495b56da79188cbb05a7a\variant\boards.cpp.o
                                                  C:\Users\Administrator\AppData\Local\Temp\VMBuilds\LoRa_Roll_Film\stm32_genericSTM32F103R\Release/core.a(main.cpp.o)
inttoBCD(int)                                     BCD_CON.cpp.o
isatty                                            C:\Users\Administrator\AppData\Local\Temp\VMBCore\arduino16x\a25b0c93d50495b56da79188cbb05a7a\variant\syscalls.c.o
iwdg_feed                                         C:\Users\Administrator\AppData\Local\Temp\VMBuilds\LoRa_Roll_Film\stm32_genericSTM32F103R\Release/core.a(iwdg.c.o)
                                                  Security.cpp.o
                                                  receipt.cpp.o
                                                  Motor.cpp.o
                                                  Memory.cpp.o
                                                  LoRa.cpp.o
                                                  Command_Analysis.cpp.o
                                                  LoRa_Roll_Film.cpp.o
iwdg_init                                         C:\Users\Administrator\AppData\Local\Temp\VMBuilds\LoRa_Roll_Film\stm32_genericSTM32F103R\Release/core.a(iwdg.c.o)
                                                  LoRa_Roll_Film.cpp.o
long_to_bcd(unsigned long)                        BCD_CON.cpp.o
loop()                                            LoRa_Roll_Film.cpp.o
                                                  C:\Users\Administrator\AppData\Local\Temp\VMBuilds\LoRa_Roll_Film\stm32_genericSTM32F103R\Release/core.a(main.cpp.o)
main                                              C:\Users\Administrator\AppData\Local\Temp\VMBuilds\LoRa_Roll_Film\stm32_genericSTM32F103R\Release/core.a(main.cpp.o)
                                                  C:\Users\Administrator\AppData\Local\Temp\VMBCore\arduino16x\a25b0c93d50495b56da79188cbb05a7a\variant\start_c.c.o
                                                  c:/users/administrator/appdata/local/arduino15/packages/arduino/tools/arm-none-eabi-gcc/4.8.3-2014q1/bin/../lib/gcc/arm-none-eabi/4.8.3/../../../../arm-none-eabi/lib/armv7-m/crt0.o
makeWord(unsigned char, unsigned char)            C:\Users\Administrator\AppData\Local\Temp\VMBuilds\LoRa_Roll_Film\stm32_genericSTM32F103R\Release/core.a(wirish_math.cpp.o)
makeWord(unsigned short)                          C:\Users\Administrator\AppData\Local\Temp\VMBuilds\LoRa_Roll_Film\stm32_genericSTM32F103R\Release/core.a(wirish_math.cpp.o)
malloc                                            c:/users/administrator/appdata/local/arduino15/packages/arduino/tools/arm-none-eabi-gcc/4.8.3-2014q1/bin/../lib/gcc/arm-none-eabi/4.8.3/../../../../arm-none-eabi/lib/armv7-m\libc.a(lib_a-__atexit.o)
matherr                                           c:/users/administrator/appdata/local/arduino15/packages/arduino/tools/arm-none-eabi-gcc/4.8.3-2014q1/bin/../lib/gcc/arm-none-eabi/4.8.3/../../../../arm-none-eabi/lib/armv7-m\libm.a(lib_a-s_matherr.o)
                                                  c:/users/administrator/appdata/local/arduino15/packages/arduino/tools/arm-none-eabi-gcc/4.8.3-2014q1/bin/../lib/gcc/arm-none-eabi/4.8.3/../../../../arm-none-eabi/lib/armv7-m\libm.a(lib_a-w_pow.o)
memset                                            c:/users/administrator/appdata/local/arduino15/packages/arduino/tools/arm-none-eabi-gcc/4.8.3-2014q1/bin/../lib/gcc/arm-none-eabi/4.8.3/../../../../arm-none-eabi/lib/armv7-m\libc.a(lib_a-memset.o)
                                                  receipt.cpp.o
                                                  Motor.cpp.o
                                                  Memory.cpp.o
                                                  LoRa.cpp.o
                                                  Command_Analysis.cpp.o
                                                  BCD_CON.cpp.o
                                                  c:/users/administrator/appdata/local/arduino15/packages/arduino/tools/arm-none-eabi-gcc/4.8.3-2014q1/bin/../lib/gcc/arm-none-eabi/4.8.3/../../../../arm-none-eabi/lib/armv7-m/crt0.o
mktime                                            c:/users/administrator/appdata/local/arduino15/packages/arduino/tools/arm-none-eabi-gcc/4.8.3-2014q1/bin/../lib/gcc/arm-none-eabi/4.8.3/../../../../arm-none-eabi/lib/armv7-m\libc.a(lib_a-mktime.o)
                                                  RTClock\RTClock.cpp.o
nan                                               c:/users/administrator/appdata/local/arduino15/packages/arduino/tools/arm-none-eabi-gcc/4.8.3-2014q1/bin/../lib/gcc/arm-none-eabi/4.8.3/../../../../arm-none-eabi/lib/armv7-m\libm.a(lib_a-s_nan.o)
                                                  c:/users/administrator/appdata/local/arduino15/packages/arduino/tools/arm-none-eabi-gcc/4.8.3-2014q1/bin/../lib/gcc/arm-none-eabi/4.8.3/../../../../arm-none-eabi/lib/armv7-m\libm.a(lib_a-e_pow.o)
nvic_init                                         C:\Users\Administrator\AppData\Local\Temp\VMBuilds\LoRa_Roll_Film\stm32_genericSTM32F103R\Release/core.a(nvic.c.o)
                                                  C:\Users\Administrator\AppData\Local\Temp\VMBCore\arduino16x\a25b0c93d50495b56da79188cbb05a7a\variant\boards.cpp.o
nvic_irq_set_priority                             C:\Users\Administrator\AppData\Local\Temp\VMBuilds\LoRa_Roll_Film\stm32_genericSTM32F103R\Release/core.a(nvic.c.o)
nvic_set_vector_table                             C:\Users\Administrator\AppData\Local\Temp\VMBuilds\LoRa_Roll_Film\stm32_genericSTM32F103R\Release/core.a(nvic.c.o)
nvic_sys_reset                                    C:\Users\Administrator\AppData\Local\Temp\VMBuilds\LoRa_Roll_Film\stm32_genericSTM32F103R\Release/core.a(nvic.c.o)
                                                  Security.cpp.o
                                                  LoRa.cpp.o
osalTimeUpdate                                    User_Clock.c.o
osal_ConvertUTCSecs                               User_Clock.c.o
                                                  Private_RTC.cpp.o
osal_ConvertUTCTime                               User_Clock.c.o
                                                  Private_RTC.cpp.o
osal_getClock                                     User_Clock.c.o
osal_setClock                                     User_Clock.c.o
pinMode(unsigned char, WiringPinMode)             C:\Users\Administrator\AppData\Local\Temp\VMBuilds\LoRa_Roll_Film\stm32_genericSTM32F103R\Release/core.a(wirish_digital_f1.cpp.o)
                                                  Motor.cpp.o
                                                  Memory.cpp.o
                                                  LoRa.cpp.o
                                                  i2c.cpp.o
                                                  fun_periph.cpp.o
pow                                               c:/users/administrator/appdata/local/arduino15/packages/arduino/tools/arm-none-eabi-gcc/4.8.3-2014q1/bin/../lib/gcc/arm-none-eabi/4.8.3/../../../../arm-none-eabi/lib/armv7-m\libm.a(lib_a-w_pow.o)
                                                  BCD_CON.cpp.o
premain()                                         C:\Users\Administrator\AppData\Local\Temp\VMBuilds\LoRa_Roll_Film\stm32_genericSTM32F103R\Release/core.a(main.cpp.o)
putch                                             C:\Users\Administrator\AppData\Local\Temp\VMBCore\arduino16x\a25b0c93d50495b56da79188cbb05a7a\variant\syscalls.c.o
rand                                              c:/users/administrator/appdata/local/arduino15/packages/arduino/tools/arm-none-eabi-gcc/4.8.3-2014q1/bin/../lib/gcc/arm-none-eabi/4.8.3/../../../../arm-none-eabi/lib/armv7-m\libc.a(lib_a-rand.o)
                                                  C:\Users\Administrator\AppData\Local\Temp\VMBuilds\LoRa_Roll_Film\stm32_genericSTM32F103R\Release/core.a(wirish_math.cpp.o)
random(long)                                      C:\Users\Administrator\AppData\Local\Temp\VMBuilds\LoRa_Roll_Film\stm32_genericSTM32F103R\Release/core.a(wirish_math.cpp.o)
random(long, long)                                C:\Users\Administrator\AppData\Local\Temp\VMBuilds\LoRa_Roll_Film\stm32_genericSTM32F103R\Release/core.a(wirish_math.cpp.o)
                                                  receipt.cpp.o
randomSeed(unsigned int)                          C:\Users\Administrator\AppData\Local\Temp\VMBuilds\LoRa_Roll_Film\stm32_genericSTM32F103R\Release/core.a(wirish_math.cpp.o)
rcc_clk_disable                                   C:\Users\Administrator\AppData\Local\Temp\VMBuilds\LoRa_Roll_Film\stm32_genericSTM32F103R\Release/core.a(rcc_f1.c.o)
                                                  C:\Users\Administrator\AppData\Local\Temp\VMBCore\arduino16x\a25b0c93d50495b56da79188cbb05a7a\variant\boards_setup.cpp.o
rcc_clk_enable                                    C:\Users\Administrator\AppData\Local\Temp\VMBuilds\LoRa_Roll_Film\stm32_genericSTM32F103R\Release/core.a(rcc_f1.c.o)
                                                  C:\Users\Administrator\AppData\Local\Temp\VMBuilds\LoRa_Roll_Film\stm32_genericSTM32F103R\Release/core.a(usart.c.o)
                                                  C:\Users\Administrator\AppData\Local\Temp\VMBuilds\LoRa_Roll_Film\stm32_genericSTM32F103R\Release/core.a(gpio.c.o)
                                                  C:\Users\Administrator\AppData\Local\Temp\VMBuilds\LoRa_Roll_Film\stm32_genericSTM32F103R\Release/core.a(timer.c.o)
                                                  C:\Users\Administrator\AppData\Local\Temp\VMBuilds\LoRa_Roll_Film\stm32_genericSTM32F103R\Release/core.a(gpio_f1.c.o)
                                                  C:\Users\Administrator\AppData\Local\Temp\VMBuilds\LoRa_Roll_Film\stm32_genericSTM32F103R\Release/core.a(bkp_f1.c.o)
                                                  C:\Users\Administrator\AppData\Local\Temp\VMBuilds\LoRa_Roll_Film\stm32_genericSTM32F103R\Release/core.a(adc.c.o)
rcc_clk_init                                      C:\Users\Administrator\AppData\Local\Temp\VMBuilds\LoRa_Roll_Film\stm32_genericSTM32F103R\Release/core.a(rcc_f1.c.o)
rcc_configure_pll                                 C:\Users\Administrator\AppData\Local\Temp\VMBuilds\LoRa_Roll_Film\stm32_genericSTM32F103R\Release/core.a(rcc_f1.c.o)
                                                  C:\Users\Administrator\AppData\Local\Temp\VMBCore\arduino16x\a25b0c93d50495b56da79188cbb05a7a\variant\boards.cpp.o
rcc_dev_clk                                       C:\Users\Administrator\AppData\Local\Temp\VMBuilds\LoRa_Roll_Film\stm32_genericSTM32F103R\Release/core.a(rcc.c.o)
                                                  C:\Users\Administrator\AppData\Local\Temp\VMBuilds\LoRa_Roll_Film\stm32_genericSTM32F103R\Release/core.a(usart_private.c.o)
                                                  C:\Users\Administrator\AppData\Local\Temp\VMBuilds\LoRa_Roll_Film\stm32_genericSTM32F103R\Release/core.a(rcc_f1.c.o)
rcc_dev_table                                     C:\Users\Administrator\AppData\Local\Temp\VMBuilds\LoRa_Roll_Film\stm32_genericSTM32F103R\Release/core.a(rcc_f1.c.o)
                                                  C:\Users\Administrator\AppData\Local\Temp\VMBuilds\LoRa_Roll_Film\stm32_genericSTM32F103R\Release/core.a(rcc.c.o)
rcc_is_clk_on                                     C:\Users\Administrator\AppData\Local\Temp\VMBuilds\LoRa_Roll_Film\stm32_genericSTM32F103R\Release/core.a(rcc.c.o)
                                                  C:\Users\Administrator\AppData\Local\Temp\VMBuilds\LoRa_Roll_Film\stm32_genericSTM32F103R\Release/core.a(rcc_f1.c.o)
rcc_is_clk_ready                                  C:\Users\Administrator\AppData\Local\Temp\VMBuilds\LoRa_Roll_Film\stm32_genericSTM32F103R\Release/core.a(rcc.c.o)
                                                  C:\Users\Administrator\AppData\Local\Temp\VMBuilds\LoRa_Roll_Film\stm32_genericSTM32F103R\Release/core.a(rcc_f1.c.o)
                                                  C:\Users\Administrator\AppData\Local\Temp\VMBCore\arduino16x\a25b0c93d50495b56da79188cbb05a7a\variant\boards.cpp.o
rcc_reset_dev                                     C:\Users\Administrator\AppData\Local\Temp\VMBuilds\LoRa_Roll_Film\stm32_genericSTM32F103R\Release/core.a(rcc_f1.c.o)
                                                  C:\Users\Administrator\AppData\Local\Temp\VMBuilds\LoRa_Roll_Film\stm32_genericSTM32F103R\Release/core.a(gpio.c.o)
                                                  C:\Users\Administrator\AppData\Local\Temp\VMBuilds\LoRa_Roll_Film\stm32_genericSTM32F103R\Release/core.a(timer.c.o)
                                                  C:\Users\Administrator\AppData\Local\Temp\VMBuilds\LoRa_Roll_Film\stm32_genericSTM32F103R\Release/core.a(gpio_f1.c.o)
                                                  C:\Users\Administrator\AppData\Local\Temp\VMBuilds\LoRa_Roll_Film\stm32_genericSTM32F103R\Release/core.a(bkp_f1.c.o)
                                                  C:\Users\Administrator\AppData\Local\Temp\VMBuilds\LoRa_Roll_Film\stm32_genericSTM32F103R\Release/core.a(adc.c.o)
rcc_set_prescaler                                 C:\Users\Administrator\AppData\Local\Temp\VMBuilds\LoRa_Roll_Film\stm32_genericSTM32F103R\Release/core.a(rcc_f1.c.o)
                                                  C:\Users\Administrator\AppData\Local\Temp\VMBuilds\LoRa_Roll_Film\stm32_genericSTM32F103R\Release/core.a(adc_f1.c.o)
                                                  C:\Users\Administrator\AppData\Local\Temp\VMBCore\arduino16x\a25b0c93d50495b56da79188cbb05a7a\variant\boards_setup.cpp.o
rcc_switch_sysclk                                 C:\Users\Administrator\AppData\Local\Temp\VMBuilds\LoRa_Roll_Film\stm32_genericSTM32F103R\Release/core.a(rcc.c.o)
                                                  C:\Users\Administrator\AppData\Local\Temp\VMBuilds\LoRa_Roll_Film\stm32_genericSTM32F103R\Release/core.a(rcc_f1.c.o)
                                                  C:\Users\Administrator\AppData\Local\Temp\VMBCore\arduino16x\a25b0c93d50495b56da79188cbb05a7a\variant\boards.cpp.o
rcc_turn_off_clk                                  C:\Users\Administrator\AppData\Local\Temp\VMBuilds\LoRa_Roll_Film\stm32_genericSTM32F103R\Release/core.a(rcc.c.o)
                                                  C:\Users\Administrator\AppData\Local\Temp\VMBCore\arduino16x\a25b0c93d50495b56da79188cbb05a7a\variant\boards.cpp.o
rcc_turn_on_clk                                   C:\Users\Administrator\AppData\Local\Temp\VMBuilds\LoRa_Roll_Film\stm32_genericSTM32F103R\Release/core.a(rcc.c.o)
                                                  C:\Users\Administrator\AppData\Local\Temp\VMBuilds\LoRa_Roll_Film\stm32_genericSTM32F103R\Release/core.a(rcc_f1.c.o)
                                                  C:\Users\Administrator\AppData\Local\Temp\VMBCore\arduino16x\a25b0c93d50495b56da79188cbb05a7a\variant\boards.cpp.o
rint                                              c:/users/administrator/appdata/local/arduino15/packages/arduino/tools/arm-none-eabi-gcc/4.8.3-2014q1/bin/../lib/gcc/arm-none-eabi/4.8.3/../../../../arm-none-eabi/lib/armv7-m\libm.a(lib_a-s_rint.o)
                                                  c:/users/administrator/appdata/local/arduino15/packages/arduino/tools/arm-none-eabi-gcc/4.8.3-2014q1/bin/../lib/gcc/arm-none-eabi/4.8.3/../../../../arm-none-eabi/lib/armv7-m\libm.a(lib_a-w_pow.o)
rtc_attach_interrupt                              RTClock\utility\rtc_util.c.o
                                                  RTClock\RTClock.cpp.o
rtc_detach_interrupt                              RTClock\utility\rtc_util.c.o
                                                  RTClock\RTClock.cpp.o
rtc_get_count                                     RTClock\utility\rtc_util.c.o
                                                  RTClock\RTClock.cpp.o
rtc_get_divider                                   RTClock\utility\rtc_util.c.o
rtc_init                                          RTClock\utility\rtc_util.c.o
                                                  RTClock\RTClock.cpp.o
rtc_set_alarm                                     RTClock\utility\rtc_util.c.o
                                                  RTClock\RTClock.cpp.o
rtc_set_count                                     RTClock\utility\rtc_util.c.o
                                                  RTClock\RTClock.cpp.o
rtc_set_prescaler_load                            RTClock\utility\rtc_util.c.o
                                                  RTClock\RTClock.cpp.o
scalbn                                            c:/users/administrator/appdata/local/arduino15/packages/arduino/tools/arm-none-eabi-gcc/4.8.3-2014q1/bin/../lib/gcc/arm-none-eabi/4.8.3/../../../../arm-none-eabi/lib/armv7-m\libm.a(lib_a-s_scalbn.o)
                                                  c:/users/administrator/appdata/local/arduino15/packages/arduino/tools/arm-none-eabi-gcc/4.8.3-2014q1/bin/../lib/gcc/arm-none-eabi/4.8.3/../../../../arm-none-eabi/lib/armv7-m\libm.a(lib_a-e_pow.o)
setup()                                           LoRa_Roll_Film.cpp.o
                                                  C:\Users\Administrator\AppData\Local\Temp\VMBuilds\LoRa_Roll_Film\stm32_genericSTM32F103R\Release/core.a(main.cpp.o)
software_init_hook                                c:/users/administrator/appdata/local/arduino15/packages/arduino/tools/arm-none-eabi-gcc/4.8.3-2014q1/bin/../lib/gcc/arm-none-eabi/4.8.3/../../../../arm-none-eabi/lib/armv7-m/crt0.o
srand                                             c:/users/administrator/appdata/local/arduino15/packages/arduino/tools/arm-none-eabi-gcc/4.8.3-2014q1/bin/../lib/gcc/arm-none-eabi/4.8.3/../../../../arm-none-eabi/lib/armv7-m\libc.a(lib_a-rand.o)
                                                  C:\Users\Administrator\AppData\Local\Temp\VMBuilds\LoRa_Roll_Film\stm32_genericSTM32F103R\Release/core.a(wirish_math.cpp.o)
start_c                                           C:\Users\Administrator\AppData\Local\Temp\VMBCore\arduino16x\a25b0c93d50495b56da79188cbb05a7a\variant\start_c.c.o
                                                  C:\Users\Administrator\AppData\Local\Temp\VMBCore\arduino16x\a25b0c93d50495b56da79188cbb05a7a\variant\start.S.o
strlen                                            c:/users/administrator/appdata/local/arduino15/packages/arduino/tools/arm-none-eabi-gcc/4.8.3-2014q1/bin/../lib/gcc/arm-none-eabi/4.8.3/../../../../arm-none-eabi/lib/armv7-m\libc.a(lib_a-strlen.o)
                                                  BCD_CON.cpp.o
systick_attach_callback                           C:\Users\Administrator\AppData\Local\Temp\VMBuilds\LoRa_Roll_Film\stm32_genericSTM32F103R\Release/core.a(systick.c.o)
systick_disable                                   C:\Users\Administrator\AppData\Local\Temp\VMBuilds\LoRa_Roll_Film\stm32_genericSTM32F103R\Release/core.a(systick.c.o)
systick_enable                                    C:\Users\Administrator\AppData\Local\Temp\VMBuilds\LoRa_Roll_Film\stm32_genericSTM32F103R\Release/core.a(systick.c.o)
systick_init                                      C:\Users\Administrator\AppData\Local\Temp\VMBuilds\LoRa_Roll_Film\stm32_genericSTM32F103R\Release/core.a(systick.c.o)
                                                  C:\Users\Administrator\AppData\Local\Temp\VMBCore\arduino16x\a25b0c93d50495b56da79188cbb05a7a\variant\boards.cpp.o
systick_uptime_millis                             C:\Users\Administrator\AppData\Local\Temp\VMBuilds\LoRa_Roll_Film\stm32_genericSTM32F103R\Release/core.a(wirish_time.cpp.o)
                                                  C:\Users\Administrator\AppData\Local\Temp\VMBuilds\LoRa_Roll_Film\stm32_genericSTM32F103R\Release/core.a(systick.c.o)
                                                  public.cpp.o
throb                                             C:\Users\Administrator\AppData\Local\Temp\VMBuilds\LoRa_Roll_Film\stm32_genericSTM32F103R\Release/core.a(util.c.o)
timer1                                            C:\Users\Administrator\AppData\Local\Temp\VMBuilds\LoRa_Roll_Film\stm32_genericSTM32F103R\Release/core.a(timer.c.o)
                                                  C:\Users\Administrator\AppData\Local\Temp\VMBCore\arduino16x\a25b0c93d50495b56da79188cbb05a7a\variant\board.cpp.o
timer2                                            C:\Users\Administrator\AppData\Local\Temp\VMBuilds\LoRa_Roll_Film\stm32_genericSTM32F103R\Release/core.a(timer.c.o)
                                                  C:\Users\Administrator\AppData\Local\Temp\VMBCore\arduino16x\a25b0c93d50495b56da79188cbb05a7a\variant\board.cpp.o
timer3                                            C:\Users\Administrator\AppData\Local\Temp\VMBuilds\LoRa_Roll_Film\stm32_genericSTM32F103R\Release/core.a(timer.c.o)
                                                  C:\Users\Administrator\AppData\Local\Temp\VMBCore\arduino16x\a25b0c93d50495b56da79188cbb05a7a\variant\board.cpp.o
timer4                                            C:\Users\Administrator\AppData\Local\Temp\VMBuilds\LoRa_Roll_Film\stm32_genericSTM32F103R\Release/core.a(timer.c.o)
                                                  C:\Users\Administrator\AppData\Local\Temp\VMBCore\arduino16x\a25b0c93d50495b56da79188cbb05a7a\variant\board.cpp.o
timer5                                            C:\Users\Administrator\AppData\Local\Temp\VMBuilds\LoRa_Roll_Film\stm32_genericSTM32F103R\Release/core.a(timer.c.o)
timer6                                            C:\Users\Administrator\AppData\Local\Temp\VMBuilds\LoRa_Roll_Film\stm32_genericSTM32F103R\Release/core.a(timer.c.o)
timer7                                            C:\Users\Administrator\AppData\Local\Temp\VMBuilds\LoRa_Roll_Film\stm32_genericSTM32F103R\Release/core.a(timer.c.o)
timer8                                            C:\Users\Administrator\AppData\Local\Temp\VMBuilds\LoRa_Roll_Film\stm32_genericSTM32F103R\Release/core.a(timer.c.o)
                                                  C:\Users\Administrator\AppData\Local\Temp\VMBCore\arduino16x\a25b0c93d50495b56da79188cbb05a7a\variant\board.cpp.o
timer_attach_interrupt                            C:\Users\Administrator\AppData\Local\Temp\VMBuilds\LoRa_Roll_Film\stm32_genericSTM32F103R\Release/core.a(timer.c.o)
                                                  C:\Users\Administrator\AppData\Local\Temp\VMBuilds\LoRa_Roll_Film\stm32_genericSTM32F103R\Release/core.a(HardwareTimer.cpp.o)
timer_detach_interrupt                            C:\Users\Administrator\AppData\Local\Temp\VMBuilds\LoRa_Roll_Film\stm32_genericSTM32F103R\Release/core.a(timer.c.o)
                                                  C:\Users\Administrator\AppData\Local\Temp\VMBuilds\LoRa_Roll_Film\stm32_genericSTM32F103R\Release/core.a(HardwareTimer.cpp.o)
timer_disable                                     C:\Users\Administrator\AppData\Local\Temp\VMBuilds\LoRa_Roll_Film\stm32_genericSTM32F103R\Release/core.a(timer.c.o)
timer_foreach                                     C:\Users\Administrator\AppData\Local\Temp\VMBuilds\LoRa_Roll_Film\stm32_genericSTM32F103R\Release/core.a(timer.c.o)
                                                  C:\Users\Administrator\AppData\Local\Temp\VMBuilds\LoRa_Roll_Film\stm32_genericSTM32F103R\Release/core.a(HardwareTimer.cpp.o)
                                                  C:\Users\Administrator\AppData\Local\Temp\VMBCore\arduino16x\a25b0c93d50495b56da79188cbb05a7a\variant\boards.cpp.o
timer_has_cc_channel                              C:\Users\Administrator\AppData\Local\Temp\VMBuilds\LoRa_Roll_Film\stm32_genericSTM32F103R\Release/core.a(timer.c.o)
                                                  C:\Users\Administrator\AppData\Local\Temp\VMBCore\arduino16x\a25b0c93d50495b56da79188cbb05a7a\variant\boards.cpp.o
timer_init                                        C:\Users\Administrator\AppData\Local\Temp\VMBuilds\LoRa_Roll_Film\stm32_genericSTM32F103R\Release/core.a(timer.c.o)
                                                  C:\Users\Administrator\AppData\Local\Temp\VMBCore\arduino16x\a25b0c93d50495b56da79188cbb05a7a\variant\boards.cpp.o
timer_set_mode                                    C:\Users\Administrator\AppData\Local\Temp\VMBuilds\LoRa_Roll_Film\stm32_genericSTM32F103R\Release/core.a(timer.c.o)
                                                  C:\Users\Administrator\AppData\Local\Temp\VMBuilds\LoRa_Roll_Film\stm32_genericSTM32F103R\Release/core.a(wirish_digital_f1.cpp.o)
                                                  C:\Users\Administrator\AppData\Local\Temp\VMBuilds\LoRa_Roll_Film\stm32_genericSTM32F103R\Release/core.a(HardwareTimer.cpp.o)
                                                  C:\Users\Administrator\AppData\Local\Temp\VMBuilds\LoRa_Roll_Film\stm32_genericSTM32F103R\Release/core.a(HardwareSerial.cpp.o)
ulongtoString(char*, unsigned long)               BCD_CON.cpp.o
usart_config_gpios_async                          C:\Users\Administrator\AppData\Local\Temp\VMBuilds\LoRa_Roll_Film\stm32_genericSTM32F103R\Release/core.a(usart_f1.c.o)
                                                  C:\Users\Administrator\AppData\Local\Temp\VMBuilds\LoRa_Roll_Film\stm32_genericSTM32F103R\Release/core.a(HardwareSerial.cpp.o)
usart_disable                                     C:\Users\Administrator\AppData\Local\Temp\VMBuilds\LoRa_Roll_Film\stm32_genericSTM32F103R\Release/core.a(usart.c.o)
                                                  C:\Users\Administrator\AppData\Local\Temp\VMBuilds\LoRa_Roll_Film\stm32_genericSTM32F103R\Release/core.a(HardwareSerial.cpp.o)
usart_enable                                      C:\Users\Administrator\AppData\Local\Temp\VMBuilds\LoRa_Roll_Film\stm32_genericSTM32F103R\Release/core.a(usart.c.o)
                                                  C:\Users\Administrator\AppData\Local\Temp\VMBuilds\LoRa_Roll_Film\stm32_genericSTM32F103R\Release/core.a(HardwareSerial.cpp.o)
usart_foreach                                     C:\Users\Administrator\AppData\Local\Temp\VMBuilds\LoRa_Roll_Film\stm32_genericSTM32F103R\Release/core.a(usart_f1.c.o)
usart_init                                        C:\Users\Administrator\AppData\Local\Temp\VMBuilds\LoRa_Roll_Film\stm32_genericSTM32F103R\Release/core.a(usart.c.o)
                                                  C:\Users\Administrator\AppData\Local\Temp\VMBuilds\LoRa_Roll_Film\stm32_genericSTM32F103R\Release/core.a(HardwareSerial.cpp.o)
usart_putudec                                     C:\Users\Administrator\AppData\Local\Temp\VMBuilds\LoRa_Roll_Film\stm32_genericSTM32F103R\Release/core.a(usart.c.o)
                                                  C:\Users\Administrator\AppData\Local\Temp\VMBuilds\LoRa_Roll_Film\stm32_genericSTM32F103R\Release/core.a(util.c.o)
usart_rx                                          C:\Users\Administrator\AppData\Local\Temp\VMBuilds\LoRa_Roll_Film\stm32_genericSTM32F103R\Release/core.a(usart.c.o)
usart_set_baud_rate                               C:\Users\Administrator\AppData\Local\Temp\VMBuilds\LoRa_Roll_Film\stm32_genericSTM32F103R\Release/core.a(usart_f1.c.o)
                                                  C:\Users\Administrator\AppData\Local\Temp\VMBuilds\LoRa_Roll_Film\stm32_genericSTM32F103R\Release/core.a(HardwareSerial.cpp.o)
usart_tx                                          C:\Users\Administrator\AppData\Local\Temp\VMBuilds\LoRa_Roll_Film\stm32_genericSTM32F103R\Release/core.a(usart.c.o)
                                                  C:\Users\Administrator\AppData\Local\Temp\VMBuilds\LoRa_Roll_Film\stm32_genericSTM32F103R\Release/core.a(HardwareSerial.cpp.o)
                                                  C:\Users\Administrator\AppData\Local\Temp\VMBuilds\LoRa_Roll_Film\stm32_genericSTM32F103R\Release/core.a(util.c.o)
vtable for HardwareSerial                         C:\Users\Administrator\AppData\Local\Temp\VMBuilds\LoRa_Roll_Film\stm32_genericSTM32F103R\Release/core.a(HardwareSerial.cpp.o)
vtable for Print                                  C:\Users\Administrator\AppData\Local\Temp\VMBuilds\LoRa_Roll_Film\stm32_genericSTM32F103R\Release/core.a(Print.cpp.o)
vtable for Stream                                 C:\Users\Administrator\AppData\Local\Temp\VMBuilds\LoRa_Roll_Film\stm32_genericSTM32F103R\Release/core.a(HardwareSerial.cpp.o)
wirish::priv::board_reset_pll()                   C:\Users\Administrator\AppData\Local\Temp\VMBCore\arduino16x\a25b0c93d50495b56da79188cbb05a7a\variant\boards_setup.cpp.o
                                                  C:\Users\Administrator\AppData\Local\Temp\VMBCore\arduino16x\a25b0c93d50495b56da79188cbb05a7a\variant\boards.cpp.o
wirish::priv::board_setup_clock_prescalers()      C:\Users\Administrator\AppData\Local\Temp\VMBCore\arduino16x\a25b0c93d50495b56da79188cbb05a7a\variant\boards_setup.cpp.o
                                                  C:\Users\Administrator\AppData\Local\Temp\VMBCore\arduino16x\a25b0c93d50495b56da79188cbb05a7a\variant\boards.cpp.o
wirish::priv::board_setup_gpio()                  C:\Users\Administrator\AppData\Local\Temp\VMBCore\arduino16x\a25b0c93d50495b56da79188cbb05a7a\variant\boards_setup.cpp.o
                                                  C:\Users\Administrator\AppData\Local\Temp\VMBCore\arduino16x\a25b0c93d50495b56da79188cbb05a7a\variant\boards.cpp.o
wirish::priv::board_setup_usb()                   C:\Users\Administrator\AppData\Local\Temp\VMBCore\arduino16x\a25b0c93d50495b56da79188cbb05a7a\variant\boards_setup.cpp.o
                                                  C:\Users\Administrator\AppData\Local\Temp\VMBCore\arduino16x\a25b0c93d50495b56da79188cbb05a7a\variant\boards.cpp.o
wirish::priv::series_init()                       C:\Users\Administrator\AppData\Local\Temp\VMBCore\arduino16x\a25b0c93d50495b56da79188cbb05a7a\variant\boards_setup.cpp.o
                                                  C:\Users\Administrator\AppData\Local\Temp\VMBCore\arduino16x\a25b0c93d50495b56da79188cbb05a7a\variant\boards.cpp.o
wirish::priv::w_adc_pre                           C:\Users\Administrator\AppData\Local\Temp\VMBCore\arduino16x\a25b0c93d50495b56da79188cbb05a7a\variant\boards_setup.cpp.o
                                                  C:\Users\Administrator\AppData\Local\Temp\VMBCore\arduino16x\a25b0c93d50495b56da79188cbb05a7a\variant\boards.cpp.o
wirish::priv::w_adc_smp                           C:\Users\Administrator\AppData\Local\Temp\VMBCore\arduino16x\a25b0c93d50495b56da79188cbb05a7a\variant\boards_setup.cpp.o
                                                  C:\Users\Administrator\AppData\Local\Temp\VMBCore\arduino16x\a25b0c93d50495b56da79188cbb05a7a\variant\boards.cpp.o
wirish::priv::w_board_pll_cfg                     C:\Users\Administrator\AppData\Local\Temp\VMBCore\arduino16x\a25b0c93d50495b56da79188cbb05a7a\variant\boards_setup.cpp.o
                                                  C:\Users\Administrator\AppData\Local\Temp\VMBCore\arduino16x\a25b0c93d50495b56da79188cbb05a7a\variant\boards.cpp.o
yield                                             C:\Users\Administrator\AppData\Local\Temp\VMBuilds\LoRa_Roll_Film\stm32_genericSTM32F103R\Release/core.a(hooks.c.o)
                                                  C:\Users\Administrator\AppData\Local\Temp\VMBuilds\LoRa_Roll_Film\stm32_genericSTM32F103R\Release/core.a(wirish_time.cpp.o)
